

Microchip MPLAB XC8 Assembler V2.10 build 88905656 
                                                                                               Wed Feb 12 18:09:24 2020

Microchip MPLAB XC8 C Compiler v2.10 (Free license) build 20190730164152 Og1 
     1                           	processor	16F887
     2                           	opt	pw 120
     3                           	opt	flic
     4                           	psect	idataCOMMON,global,class=CODE,delta=2
     5                           	psect	idataBANK0,global,class=CODE,delta=2
     6                           	psect	strings,global,class=STRING,delta=2
     7                           	psect	cinit,global,class=CODE,merge=1,delta=2
     8                           	psect	bssCOMMON,global,class=COMMON,space=1,delta=1
     9                           	psect	dataCOMMON,global,class=COMMON,space=1,delta=1
    10                           	psect	bssBANK0,global,class=BANK0,space=1,delta=1
    11                           	psect	dataBANK0,global,class=BANK0,space=1,delta=1
    12                           	psect	bssBANK1,global,class=BANK1,space=1,delta=1
    13                           	psect	clrtext,global,class=CODE,delta=2
    14                           	psect	cstackBANK1,global,class=BANK1,space=1,delta=1
    15                           	psect	cstackCOMMON,global,class=COMMON,space=1,delta=1
    16                           	psect	cstackBANK0,global,class=BANK0,space=1,delta=1
    17                           	psect	maintext,global,class=CODE,split=1,delta=2
    18                           	psect	text1,local,class=CODE,merge=1,delta=2,group=1
    19                           	psect	text2,local,class=CODE,merge=1,delta=2,group=1
    20                           	psect	text3,local,class=CODE,merge=1,delta=2
    21                           	psect	text4,local,class=CODE,merge=1,delta=2
    22                           	psect	text5,local,class=CODE,merge=1,delta=2,group=1
    23                           	psect	text6,local,class=CODE,merge=1,delta=2,group=1
    24                           	psect	text7,local,class=CODE,merge=1,delta=2
    25                           	psect	text8,local,class=CODE,merge=1,delta=2
    26                           	psect	text9,local,class=CODE,merge=1,delta=2
    27                           	psect	text10,local,class=CODE,merge=1,delta=2,group=1
    28                           	psect	text11,local,class=CODE,merge=1,delta=2,group=1
    29                           	psect	text12,local,class=CODE,merge=1,delta=2,group=1
    30                           	psect	text13,local,class=CODE,merge=1,delta=2,group=1
    31                           	psect	text14,local,class=CODE,merge=1,delta=2,group=1
    32                           	psect	text15,local,class=CODE,merge=1,delta=2,group=1
    33                           	psect	text16,local,class=CODE,merge=1,delta=2
    34                           	psect	text17,local,class=CODE,merge=1,delta=2
    35                           	psect	text18,local,class=CODE,merge=1,delta=2
    36                           	psect	text19,local,class=CODE,merge=1,delta=2
    37                           	psect	text20,local,class=CODE,merge=1,delta=2
    38                           	psect	text21,local,class=CODE,merge=1,delta=2
    39                           	psect	text22,local,class=CODE,merge=1,delta=2
    40                           	psect	text23,local,class=CODE,merge=1,delta=2
    41                           	psect	intentry,global,class=CODE,delta=2
    42                           	psect	text24,local,class=CODE,merge=1,delta=2
    43                           	dabs	1,0x7E,2
    44  0000                     
    45                           ; Version 2.10
    46                           ; Generated 31/07/2019 GMT
    47                           ; 
    48                           ; Copyright © 2019, Microchip Technology Inc. and its subsidiaries ("Microchip")
    49                           ; All rights reserved.
    50                           ; 
    51                           ; This software is developed by Microchip Technology Inc. and its subsidiaries ("Microch
      +                          ip").
    52                           ; 
    53                           ; Redistribution and use in source and binary forms, with or without modification, are
    54                           ; permitted provided that the following conditions are met:
    55                           ; 
    56                           ;     1. Redistributions of source code must retain the above copyright notice, this lis
      +                          t of
    57                           ;        conditions and the following disclaimer.
    58                           ; 
    59                           ;     2. Redistributions in binary form must reproduce the above copyright notice, this 
      +                          list
    60                           ;        of conditions and the following disclaimer in the documentation and/or other
    61                           ;        materials provided with the distribution.
    62                           ; 
    63                           ;     3. Microchip's name may not be used to endorse or promote products derived from th
      +                          is
    64                           ;        software without specific prior written permission.
    65                           ; 
    66                           ; THIS SOFTWARE IS PROVIDED BY MICROCHIP "AS IS" AND ANY EXPRESS OR IMPLIED WARRANTIES,
    67                           ; INCLUDING, BUT NOT LIMITED TO, THE IMPLIED WARRANTIES OF MERCHANTABILITY AND FITNESS F
      +                          OR
    68                           ; PURPOSE ARE DISCLAIMED.  IN NO EVENT SHALL MICROCHIP BE LIABLE FOR ANY DIRECT, INDIREC
      +                          T,
    69                           ; INCIDENTAL, SPECIAL, EXEMPLARY, OR CONSEQUENTIAL DAMAGES (INCLUDING BUT NOT LIMITED TO
    70                           ; PROCUREMENT OF SUBSTITUTE GOODS OR SERVICES; LOSS OF USE, DATA OR PROFITS; OR BUSINESS
    71                           ; INTERRUPTION) HOWSOEVER CAUSED AND ON ANY THEORY OF LIABILITY, WHETHER IN CONTRACT, ST
      +                          RICT
    72                           ; LIABILITY, OR TORT (INCLUDING NEGLIGENCE OR OTHERWISE) ARISING IN ANY WAY OUT OF THE U
      +                          SE OF
    73                           ; THIS SOFTWARE, EVEN IF ADVISED OF THE POSSIBILITY OF SUCH DAMAGE.
    74                           ; 
    75                           ; 
    76                           ; Code-generator required, PIC16F887 Definitions
    77                           ; 
    78                           ; SFR Addresses
    79  0000                     	;# 
    80  0001                     	;# 
    81  0002                     	;# 
    82  0003                     	;# 
    83  0004                     	;# 
    84  0005                     	;# 
    85  0006                     	;# 
    86  0007                     	;# 
    87  0008                     	;# 
    88  0009                     	;# 
    89  000A                     	;# 
    90  000B                     	;# 
    91  000C                     	;# 
    92  000D                     	;# 
    93  000E                     	;# 
    94  000E                     	;# 
    95  000F                     	;# 
    96  0010                     	;# 
    97  0011                     	;# 
    98  0012                     	;# 
    99  0013                     	;# 
   100  0014                     	;# 
   101  0015                     	;# 
   102  0015                     	;# 
   103  0016                     	;# 
   104  0017                     	;# 
   105  0018                     	;# 
   106  0019                     	;# 
   107  001A                     	;# 
   108  001B                     	;# 
   109  001B                     	;# 
   110  001C                     	;# 
   111  001D                     	;# 
   112  001E                     	;# 
   113  001F                     	;# 
   114  0081                     	;# 
   115  0085                     	;# 
   116  0086                     	;# 
   117  0087                     	;# 
   118  0088                     	;# 
   119  0089                     	;# 
   120  008C                     	;# 
   121  008D                     	;# 
   122  008E                     	;# 
   123  008F                     	;# 
   124  0090                     	;# 
   125  0091                     	;# 
   126  0092                     	;# 
   127  0093                     	;# 
   128  0093                     	;# 
   129  0093                     	;# 
   130  0094                     	;# 
   131  0095                     	;# 
   132  0096                     	;# 
   133  0097                     	;# 
   134  0098                     	;# 
   135  0099                     	;# 
   136  009A                     	;# 
   137  009B                     	;# 
   138  009C                     	;# 
   139  009D                     	;# 
   140  009E                     	;# 
   141  009F                     	;# 
   142  0105                     	;# 
   143  0107                     	;# 
   144  0108                     	;# 
   145  0109                     	;# 
   146  010C                     	;# 
   147  010C                     	;# 
   148  010D                     	;# 
   149  010E                     	;# 
   150  010F                     	;# 
   151  0185                     	;# 
   152  0187                     	;# 
   153  0188                     	;# 
   154  0189                     	;# 
   155  018C                     	;# 
   156  018D                     	;# 
   157  0000                     	;# 
   158  0001                     	;# 
   159  0002                     	;# 
   160  0003                     	;# 
   161  0004                     	;# 
   162  0005                     	;# 
   163  0006                     	;# 
   164  0007                     	;# 
   165  0008                     	;# 
   166  0009                     	;# 
   167  000A                     	;# 
   168  000B                     	;# 
   169  000C                     	;# 
   170  000D                     	;# 
   171  000E                     	;# 
   172  000E                     	;# 
   173  000F                     	;# 
   174  0010                     	;# 
   175  0011                     	;# 
   176  0012                     	;# 
   177  0013                     	;# 
   178  0014                     	;# 
   179  0015                     	;# 
   180  0015                     	;# 
   181  0016                     	;# 
   182  0017                     	;# 
   183  0018                     	;# 
   184  0019                     	;# 
   185  001A                     	;# 
   186  001B                     	;# 
   187  001B                     	;# 
   188  001C                     	;# 
   189  001D                     	;# 
   190  001E                     	;# 
   191  001F                     	;# 
   192  0081                     	;# 
   193  0085                     	;# 
   194  0086                     	;# 
   195  0087                     	;# 
   196  0088                     	;# 
   197  0089                     	;# 
   198  008C                     	;# 
   199  008D                     	;# 
   200  008E                     	;# 
   201  008F                     	;# 
   202  0090                     	;# 
   203  0091                     	;# 
   204  0092                     	;# 
   205  0093                     	;# 
   206  0093                     	;# 
   207  0093                     	;# 
   208  0094                     	;# 
   209  0095                     	;# 
   210  0096                     	;# 
   211  0097                     	;# 
   212  0098                     	;# 
   213  0099                     	;# 
   214  009A                     	;# 
   215  009B                     	;# 
   216  009C                     	;# 
   217  009D                     	;# 
   218  009E                     	;# 
   219  009F                     	;# 
   220  0105                     	;# 
   221  0107                     	;# 
   222  0108                     	;# 
   223  0109                     	;# 
   224  010C                     	;# 
   225  010C                     	;# 
   226  010D                     	;# 
   227  010E                     	;# 
   228  010F                     	;# 
   229  0185                     	;# 
   230  0187                     	;# 
   231  0188                     	;# 
   232  0189                     	;# 
   233  018C                     	;# 
   234  018D                     	;# 
   235  0000                     	;# 
   236  0001                     	;# 
   237  0002                     	;# 
   238  0003                     	;# 
   239  0004                     	;# 
   240  0005                     	;# 
   241  0006                     	;# 
   242  0007                     	;# 
   243  0008                     	;# 
   244  0009                     	;# 
   245  000A                     	;# 
   246  000B                     	;# 
   247  000C                     	;# 
   248  000D                     	;# 
   249  000E                     	;# 
   250  000E                     	;# 
   251  000F                     	;# 
   252  0010                     	;# 
   253  0011                     	;# 
   254  0012                     	;# 
   255  0013                     	;# 
   256  0014                     	;# 
   257  0015                     	;# 
   258  0015                     	;# 
   259  0016                     	;# 
   260  0017                     	;# 
   261  0018                     	;# 
   262  0019                     	;# 
   263  001A                     	;# 
   264  001B                     	;# 
   265  001B                     	;# 
   266  001C                     	;# 
   267  001D                     	;# 
   268  001E                     	;# 
   269  001F                     	;# 
   270  0081                     	;# 
   271  0085                     	;# 
   272  0086                     	;# 
   273  0087                     	;# 
   274  0088                     	;# 
   275  0089                     	;# 
   276  008C                     	;# 
   277  008D                     	;# 
   278  008E                     	;# 
   279  008F                     	;# 
   280  0090                     	;# 
   281  0091                     	;# 
   282  0092                     	;# 
   283  0093                     	;# 
   284  0093                     	;# 
   285  0093                     	;# 
   286  0094                     	;# 
   287  0095                     	;# 
   288  0096                     	;# 
   289  0097                     	;# 
   290  0098                     	;# 
   291  0099                     	;# 
   292  009A                     	;# 
   293  009B                     	;# 
   294  009C                     	;# 
   295  009D                     	;# 
   296  009E                     	;# 
   297  009F                     	;# 
   298  0105                     	;# 
   299  0107                     	;# 
   300  0108                     	;# 
   301  0109                     	;# 
   302  010C                     	;# 
   303  010C                     	;# 
   304  010D                     	;# 
   305  010E                     	;# 
   306  010F                     	;# 
   307  0185                     	;# 
   308  0187                     	;# 
   309  0188                     	;# 
   310  0189                     	;# 
   311  018C                     	;# 
   312  018D                     	;# 
   313  0000                     	;# 
   314  0001                     	;# 
   315  0002                     	;# 
   316  0003                     	;# 
   317  0004                     	;# 
   318  0005                     	;# 
   319  0006                     	;# 
   320  0007                     	;# 
   321  0008                     	;# 
   322  0009                     	;# 
   323  000A                     	;# 
   324  000B                     	;# 
   325  000C                     	;# 
   326  000D                     	;# 
   327  000E                     	;# 
   328  000E                     	;# 
   329  000F                     	;# 
   330  0010                     	;# 
   331  0011                     	;# 
   332  0012                     	;# 
   333  0013                     	;# 
   334  0014                     	;# 
   335  0015                     	;# 
   336  0015                     	;# 
   337  0016                     	;# 
   338  0017                     	;# 
   339  0018                     	;# 
   340  0019                     	;# 
   341  001A                     	;# 
   342  001B                     	;# 
   343  001B                     	;# 
   344  001C                     	;# 
   345  001D                     	;# 
   346  001E                     	;# 
   347  001F                     	;# 
   348  0081                     	;# 
   349  0085                     	;# 
   350  0086                     	;# 
   351  0087                     	;# 
   352  0088                     	;# 
   353  0089                     	;# 
   354  008C                     	;# 
   355  008D                     	;# 
   356  008E                     	;# 
   357  008F                     	;# 
   358  0090                     	;# 
   359  0091                     	;# 
   360  0092                     	;# 
   361  0093                     	;# 
   362  0093                     	;# 
   363  0093                     	;# 
   364  0094                     	;# 
   365  0095                     	;# 
   366  0096                     	;# 
   367  0097                     	;# 
   368  0098                     	;# 
   369  0099                     	;# 
   370  009A                     	;# 
   371  009B                     	;# 
   372  009C                     	;# 
   373  009D                     	;# 
   374  009E                     	;# 
   375  009F                     	;# 
   376  0105                     	;# 
   377  0107                     	;# 
   378  0108                     	;# 
   379  0109                     	;# 
   380  010C                     	;# 
   381  010C                     	;# 
   382  010D                     	;# 
   383  010E                     	;# 
   384  010F                     	;# 
   385  0185                     	;# 
   386  0187                     	;# 
   387  0188                     	;# 
   388  0189                     	;# 
   389  018C                     	;# 
   390  018D                     	;# 
   391  0000                     	;# 
   392  0001                     	;# 
   393  0002                     	;# 
   394  0003                     	;# 
   395  0004                     	;# 
   396  0005                     	;# 
   397  0006                     	;# 
   398  0007                     	;# 
   399  0008                     	;# 
   400  0009                     	;# 
   401  000A                     	;# 
   402  000B                     	;# 
   403  000C                     	;# 
   404  000D                     	;# 
   405  000E                     	;# 
   406  000E                     	;# 
   407  000F                     	;# 
   408  0010                     	;# 
   409  0011                     	;# 
   410  0012                     	;# 
   411  0013                     	;# 
   412  0014                     	;# 
   413  0015                     	;# 
   414  0015                     	;# 
   415  0016                     	;# 
   416  0017                     	;# 
   417  0018                     	;# 
   418  0019                     	;# 
   419  001A                     	;# 
   420  001B                     	;# 
   421  001B                     	;# 
   422  001C                     	;# 
   423  001D                     	;# 
   424  001E                     	;# 
   425  001F                     	;# 
   426  0081                     	;# 
   427  0085                     	;# 
   428  0086                     	;# 
   429  0087                     	;# 
   430  0088                     	;# 
   431  0089                     	;# 
   432  008C                     	;# 
   433  008D                     	;# 
   434  008E                     	;# 
   435  008F                     	;# 
   436  0090                     	;# 
   437  0091                     	;# 
   438  0092                     	;# 
   439  0093                     	;# 
   440  0093                     	;# 
   441  0093                     	;# 
   442  0094                     	;# 
   443  0095                     	;# 
   444  0096                     	;# 
   445  0097                     	;# 
   446  0098                     	;# 
   447  0099                     	;# 
   448  009A                     	;# 
   449  009B                     	;# 
   450  009C                     	;# 
   451  009D                     	;# 
   452  009E                     	;# 
   453  009F                     	;# 
   454  0105                     	;# 
   455  0107                     	;# 
   456  0108                     	;# 
   457  0109                     	;# 
   458  010C                     	;# 
   459  010C                     	;# 
   460  010D                     	;# 
   461  010E                     	;# 
   462  010F                     	;# 
   463  0185                     	;# 
   464  0187                     	;# 
   465  0188                     	;# 
   466  0189                     	;# 
   467  018C                     	;# 
   468  018D                     	;# 
   469                           
   470                           	psect	idataCOMMON
   471  07FF                     __pidataCOMMON:	
   472                           
   473                           ;initializer for _Sel_ADC
   474  07FF  3401               	retlw	1
   475                           
   476                           	psect	idataBANK0
   477  0003                     __pidataBANK0:	
   478                           
   479                           ;initializer for _Counter
   480  0003  3401               	retlw	1
   481                           
   482                           	psect	strings
   483  0800                     __pstrings:	
   484  0800                     stringtab:	
   485  0800                     __stringtab:	
   486                           
   487                           ;	String table - string pointers are 1 byte each
   488  0800  1BFF               	btfsc	btemp+1,7
   489  0801  280A               	ljmp	stringcode
   490  0802  1383               	bcf	3,7
   491  0803  187F               	btfsc	btemp+1,0
   492  0804  1783               	bsf	3,7
   493  0805  0800               	movf	0,w
   494  0806  0A84               	incf	4,f
   495  0807  1903               	skipnz
   496  0808  0AFF               	incf	btemp+1,f
   497  0809  0008               	return
   498  080A                     stringcode:	
   499  080A                     stringdir:	
   500  080A  3008               	movlw	high stringdir
   501  080B  008A               	movwf	10
   502  080C  0804               	movf	4,w
   503  080D  0A84               	incf	4,f
   504  080E  0782               	addwf	2,f
   505  080F                     __stringbase:	
   506  080F  3400               	retlw	0
   507  0810                     __end_of__stringtab:	
   508  0810                     _dpowers:	
   509  0810  3401               	retlw	1
   510  0811  3400               	retlw	0
   511  0812  340A               	retlw	10
   512  0813  3400               	retlw	0
   513  0814  3464               	retlw	100
   514  0815  3400               	retlw	0
   515  0816  34E8               	retlw	232
   516  0817  3403               	retlw	3
   517  0818  3410               	retlw	16
   518  0819  3427               	retlw	39
   519  081A                     __end_of_dpowers:	
   520  0019                     _TXREG	set	25
   521  001A                     _RCREG	set	26
   522  001E                     _ADRESH	set	30
   523  000C                     _PIR1bits	set	12
   524  000B                     _INTCONbits	set	11
   525  001F                     _ADCON0bits	set	31
   526  0018                     _RCSTAbits	set	24
   527  0007                     _PORTCbits	set	7
   528  0005                     _PORTA	set	5
   529  0087                     _TRISC	set	135
   530  0085                     _TRISA	set	133
   531  009F                     _ADCON1bits	set	159
   532  0099                     _SPBRG	set	153
   533  0098                     _TXSTAbits	set	152
   534  008C                     _PIE1bits	set	140
   535  0187                     _BAUDCTLbits	set	391
   536  081A                     STR_2:	
   537  081A  3420               	retlw	32	;' '
   538  081B  3453               	retlw	83	;'S'
   539  081C  3431               	retlw	49	;'1'
   540  081D  3420               	retlw	32	;' '
   541  081E  3420               	retlw	32	;' '
   542  081F  3420               	retlw	32	;' '
   543  0820  3420               	retlw	32	;' '
   544  0821  3453               	retlw	83	;'S'
   545  0822  3432               	retlw	50	;'2'
   546  0823  3420               	retlw	32	;' '
   547  0824  3420               	retlw	32	;' '
   548  0825  3420               	retlw	32	;' '
   549  0826  3420               	retlw	32	;' '
   550  0827  3453               	retlw	83	;'S'
   551  0828  3433               	retlw	51	;'3'
   552  0829  3420               	retlw	32	;' '
   553  082A  3400               	retlw	0
   554  082B                     STR_7:	
   555  082B  3420               	retlw	32	;' '
   556  082C  3420               	retlw	32	;' '
   557  082D  3400               	retlw	0
   558  082E                     STR_4:	
   559  082E  3456               	retlw	86	;'V'
   560  082F  3420               	retlw	32	;' '
   561  0830  3400               	retlw	0
   562  0831                     STR_1:	
   563  0831  3425               	retlw	37	;'%'
   564  0832  3464               	retlw	100	;'d'
   565  0833  3400               	retlw	0
   566  0834                     STR_3:	
   567  0834  342E               	retlw	46	;'.'
   568  0835  3400               	retlw	0
   569  082E                     
   570                           ; #config settings
   571  0000                     
   572                           	psect	cinit
   573  000F                     start_initialization:	
   574  000F                     __initialization:	
   575                           
   576                           ; Initialize objects allocated to BANK0
   577  000F  120A  118A  2003  120A  118A  	fcall	__pidataBANK0	;fetch initializer
   578  0014  00EC               	movwf	__pdataBANK0& (0+127)
   579                           
   580                           ; Initialize objects allocated to COMMON
   581  0015  120A  118A  27FF  120A  118A  	fcall	__pidataCOMMON	;fetch initializer
   582  001A  00F8               	movwf	__pdataCOMMON& (0+127)
   583                           
   584                           ; Clear objects allocated to BANK1
   585  001B  1383               	bcf	3,7	;select IRP bank0
   586  001C  30A0               	movlw	low __pbssBANK1
   587  001D  0084               	movwf	4
   588  001E  30B8               	movlw	low (__pbssBANK1+24)
   589  001F  120A  118A  27F7  120A  118A  	fcall	clear_ram0
   590                           
   591                           ; Clear objects allocated to BANK0
   592  0024  3062               	movlw	low __pbssBANK0
   593  0025  0084               	movwf	4
   594  0026  306C               	movlw	low (__pbssBANK0+10)
   595  0027  120A  118A  27F7  120A  118A  	fcall	clear_ram0
   596                           
   597                           ; Clear objects allocated to COMMON
   598  002C  01F7               	clrf	__pbssCOMMON& (0+127)
   599  002D                     end_of_initialization:	
   600                           ;End of C runtime variable initialization code
   601                           
   602  002D                     __end_of__initialization:	
   603  002D  0183               	clrf	3
   604  002E  120A  158A  2DEA   	ljmp	_main	;jump to C main() function
   605                           
   606                           	psect	bssCOMMON
   607  0077                     __pbssCOMMON:	
   608  0077                     _b:	
   609  0077                     	ds	1
   610                           
   611                           	psect	dataCOMMON
   612  0078                     __pdataCOMMON:	
   613  0078                     _Sel_ADC:	
   614  0078                     	ds	1
   615                           
   616                           	psect	bssBANK0
   617  0062                     __pbssBANK0:	
   618  0062                     _Uni_1:	
   619  0062                     	ds	4
   620  0066                     _Dec_2:	
   621  0066                     	ds	1
   622  0067                     _Dec_1:	
   623  0067                     	ds	1
   624  0068                     _Unidades:	
   625  0068                     	ds	1
   626  0069                     _Decenas:	
   627  0069                     	ds	1
   628  006A                     _Pot_2:	
   629  006A                     	ds	1
   630  006B                     _Pot_1:	
   631  006B                     	ds	1
   632                           
   633                           	psect	dataBANK0
   634  006C                     __pdataBANK0:	
   635  006C                     _Counter:	
   636  006C                     	ds	1
   637                           
   638                           	psect	bssBANK1
   639  00A0                     __pbssBANK1:	
   640  00A0                     _output1:	
   641  00A0                     	ds	8
   642  00A8                     _f2:	
   643  00A8                     	ds	4
   644  00AC                     _tempU:	
   645  00AC                     	ds	4
   646  00B0                     _Uni_2:	
   647  00B0                     	ds	4
   648  00B4                     _f1:	
   649  00B4                     	ds	4
   650                           
   651                           	psect	clrtext
   652  07F7                     clear_ram0:	
   653                           ;	Called with FSR containing the base address, and
   654                           ;	W with the last address+1
   655                           
   656  07F7  0064               	clrwdt	;clear the watchdog before getting into this loop
   657  07F8                     clrloop0:	
   658  07F8  0180               	clrf	0	;clear RAM location pointed to by FSR
   659  07F9  0A84               	incf	4,f	;increment pointer
   660  07FA  0604               	xorwf	4,w	;XOR with final address
   661  07FB  1903               	btfsc	3,2	;have we reached the end yet?
   662  07FC  3400               	retlw	0	;all done for this memory range, return
   663  07FD  0604               	xorwf	4,w	;XOR again to restore value
   664  07FE  2FF8               	goto	clrloop0	;do the next byte
   665                           
   666                           	psect	cstackBANK1
   667  00B8                     __pcstackBANK1:	
   668  00B8                     ??_main:	
   669                           
   670                           ; 1 bytes @ 0x0
   671  00B8                     	ds	4
   672                           
   673                           	psect	cstackCOMMON
   674  0070                     __pcstackCOMMON:	
   675  0070                     ?_Configuracion:	
   676  0070                     ?_Envio:	
   677                           ; 1 bytes @ 0x0
   678                           
   679  0070                     ?_LCD_CmdWrite:	
   680                           ; 1 bytes @ 0x0
   681                           
   682  0070                     ?_DWR_LCD:	
   683                           ; 1 bytes @ 0x0
   684                           
   685  0070                     ?_WriteInt_LCD:	
   686                           ; 1 bytes @ 0x0
   687                           
   688  0070                     ?_init_LCD:	
   689                           ; 1 bytes @ 0x0
   690                           
   691  0070                     ?_Init_USART:	
   692                           ; 1 bytes @ 0x0
   693                           
   694  0070                     ?_Init_ADC:	
   695                           ; 1 bytes @ 0x0
   696                           
   697  0070                     ?_Interrupciones_ADC:	
   698                           ; 1 bytes @ 0x0
   699                           
   700  0070                     ?_Canales_ADC:	
   701                           ; 1 bytes @ 0x0
   702                           
   703  0070                     ??_Canales_ADC:	
   704                           ; 1 bytes @ 0x0
   705                           
   706  0070                     ?_ISR:	
   707                           ; 1 bytes @ 0x0
   708                           
   709  0070                     ?_main:	
   710                           ; 1 bytes @ 0x0
   711                           
   712  0070                     Canales_ADC@Canal:	
   713                           ; 1 bytes @ 0x0
   714                           
   715                           
   716                           ; 1 bytes @ 0x0
   717  0070                     	ds	1
   718  0071                     ??_ISR:	
   719                           
   720                           ; 1 bytes @ 0x1
   721  0071                     	ds	4
   722  0075                     ??_Envio:	
   723  0075                     ??_LCD_CmdWrite:	
   724                           ; 1 bytes @ 0x5
   725                           
   726  0075                     ??_DWR_LCD:	
   727                           ; 1 bytes @ 0x5
   728                           
   729  0075                     ??_Init_USART:	
   730                           ; 1 bytes @ 0x5
   731                           
   732  0075                     ??_Init_ADC:	
   733                           ; 1 bytes @ 0x5
   734                           
   735  0075                     ??_Interrupciones_ADC:	
   736                           ; 1 bytes @ 0x5
   737                           
   738  0075                     ??___lwdiv:	
   739                           ; 1 bytes @ 0x5
   740                           
   741  0075                     ??___flsub:	
   742                           ; 1 bytes @ 0x5
   743                           
   744  0075                     ?__Umul8_16:	
   745                           ; 1 bytes @ 0x5
   746                           
   747  0075                     Envio@Lol:	
   748                           ; 2 bytes @ 0x5
   749                           
   750  0075                     ___fltol@sign1:	
   751                           ; 1 bytes @ 0x5
   752                           
   753  0075                     __Umul8_16@multiplicand:	
   754                           ; 1 bytes @ 0x5
   755                           
   756                           
   757                           ; 1 bytes @ 0x5
   758  0075                     	ds	1
   759  0076                     ??___lwmod:	
   760  0076                     LCD_CmdWrite@cmd:	
   761                           ; 1 bytes @ 0x6
   762                           
   763  0076                     DWR_LCD@dat:	
   764                           ; 1 bytes @ 0x6
   765                           
   766  0076                     ___fltol@exp1:	
   767                           ; 1 bytes @ 0x6
   768                           
   769                           
   770                           ; 1 bytes @ 0x6
   771  0076                     	ds	1
   772  0077                     ??_Configuracion:	
   773  0077                     ??_LCD_DataWrite:	
   774                           ; 1 bytes @ 0x7
   775                           
   776  0077                     ??_init_LCD:	
   777                           ; 1 bytes @ 0x7
   778                           
   779                           
   780                           	psect	cstackBANK0
   781  0020                     __pcstackBANK0:	
   782                           ; 1 bytes @ 0x7
   783                           
   784  0020                     ?___flge:	
   785  0020                     ??__Umul8_16:	
   786                           ; 1 bit 
   787                           
   788  0020                     ?_LCD_DataWrite:	
   789                           ; 1 bytes @ 0x0
   790                           
   791  0020                     ?___lwdiv:	
   792                           ; 1 bytes @ 0x0
   793                           
   794  0020                     ?___fltol:	
   795                           ; 2 bytes @ 0x0
   796                           
   797  0020                     ?___fladd:	
   798                           ; 4 bytes @ 0x0
   799                           
   800  0020                     ?___xxtofl:	
   801                           ; 4 bytes @ 0x0
   802                           
   803  0020                     LCD_DataWrite@dato:	
   804                           ; 4 bytes @ 0x0
   805                           
   806  0020                     ___lwdiv@divisor:	
   807                           ; 2 bytes @ 0x0
   808                           
   809  0020                     ___flge@ff1:	
   810                           ; 2 bytes @ 0x0
   811                           
   812  0020                     ___fltol@f1:	
   813                           ; 4 bytes @ 0x0
   814                           
   815  0020                     ___fladd@b:	
   816                           ; 4 bytes @ 0x0
   817                           
   818  0020                     ___xxtofl@val:	
   819                           ; 4 bytes @ 0x0
   820                           
   821                           
   822                           ; 4 bytes @ 0x0
   823  0020                     	ds	2
   824  0022                     ___lwdiv@dividend:	
   825  0022                     __Umul8_16@product:	
   826                           ; 2 bytes @ 0x2
   827                           
   828                           
   829                           ; 2 bytes @ 0x2
   830  0022                     	ds	2
   831  0024                     ??___fltol:	
   832  0024                     ??___xxtofl:	
   833                           ; 1 bytes @ 0x4
   834                           
   835  0024                     ___lwdiv@counter:	
   836                           ; 1 bytes @ 0x4
   837                           
   838  0024                     __Umul8_16@word_mpld:	
   839                           ; 1 bytes @ 0x4
   840                           
   841  0024                     ___flge@ff2:	
   842                           ; 2 bytes @ 0x4
   843                           
   844  0024                     ___fladd@a:	
   845                           ; 4 bytes @ 0x4
   846                           
   847                           
   848                           ; 4 bytes @ 0x4
   849  0024                     	ds	1
   850  0025                     ___lwdiv@quotient:	
   851                           
   852                           ; 2 bytes @ 0x5
   853  0025                     	ds	1
   854  0026                     __Umul8_16@multiplier:	
   855                           
   856                           ; 1 bytes @ 0x6
   857  0026                     	ds	1
   858  0027                     ?___lwmod:	
   859  0027                     ___lwmod@divisor:	
   860                           ; 2 bytes @ 0x7
   861                           
   862                           
   863                           ; 2 bytes @ 0x7
   864  0027                     	ds	1
   865  0028                     ??___flge:	
   866  0028                     ??___fladd:	
   867                           ; 1 bytes @ 0x8
   868                           
   869  0028                     ___xxtofl@sign:	
   870                           ; 1 bytes @ 0x8
   871                           
   872                           
   873                           ; 1 bytes @ 0x8
   874  0028                     	ds	1
   875  0029                     ___xxtofl@exp:	
   876  0029                     ___lwmod@dividend:	
   877                           ; 1 bytes @ 0x9
   878                           
   879                           
   880                           ; 2 bytes @ 0x9
   881  0029                     	ds	1
   882  002A                     ___xxtofl@arg:	
   883                           
   884                           ; 4 bytes @ 0xA
   885  002A                     	ds	1
   886  002B                     ___lwmod@counter:	
   887                           
   888                           ; 1 bytes @ 0xB
   889  002B                     	ds	1
   890  002C                     ?_sprintf:	
   891  002C                     sprintf@f:	
   892                           ; 2 bytes @ 0xC
   893                           
   894                           
   895                           ; 1 bytes @ 0xC
   896  002C                     	ds	2
   897  002E                     ?___flmul:	
   898  002E                     ___flmul@b:	
   899                           ; 4 bytes @ 0xE
   900                           
   901                           
   902                           ; 4 bytes @ 0xE
   903  002E                     	ds	1
   904  002F                     ??_sprintf:	
   905                           
   906                           ; 1 bytes @ 0xF
   907  002F                     	ds	1
   908  0030                     ___fladd@signs:	
   909                           
   910                           ; 1 bytes @ 0x10
   911  0030                     	ds	1
   912  0031                     ___fladd@aexp:	
   913                           
   914                           ; 1 bytes @ 0x11
   915  0031                     	ds	1
   916  0032                     sprintf@ap:	
   917  0032                     ___fladd@bexp:	
   918                           ; 1 bytes @ 0x12
   919                           
   920  0032                     ___flmul@a:	
   921                           ; 1 bytes @ 0x12
   922                           
   923                           
   924                           ; 4 bytes @ 0x12
   925  0032                     	ds	1
   926  0033                     sprintf@flag:	
   927  0033                     ___fladd@grs:	
   928                           ; 1 bytes @ 0x13
   929                           
   930                           
   931                           ; 1 bytes @ 0x13
   932  0033                     	ds	1
   933  0034                     ?___flsub:	
   934  0034                     sprintf@prec:	
   935                           ; 4 bytes @ 0x14
   936                           
   937  0034                     ___flsub@a:	
   938                           ; 1 bytes @ 0x14
   939                           
   940                           
   941                           ; 4 bytes @ 0x14
   942  0034                     	ds	1
   943  0035                     sprintf@val:	
   944                           
   945                           ; 2 bytes @ 0x15
   946  0035                     	ds	1
   947  0036                     ??___flmul:	
   948                           
   949                           ; 1 bytes @ 0x16
   950  0036                     	ds	1
   951  0037                     sprintf@sp:	
   952                           
   953                           ; 1 bytes @ 0x17
   954  0037                     	ds	1
   955  0038                     sprintf@c:	
   956  0038                     ___flsub@b:	
   957                           ; 1 bytes @ 0x18
   958                           
   959                           
   960                           ; 4 bytes @ 0x18
   961  0038                     	ds	1
   962  0039                     ??_WriteInt_LCD:	
   963                           
   964                           ; 1 bytes @ 0x19
   965  0039                     	ds	2
   966  003B                     ___flmul@sign:	
   967                           
   968                           ; 1 bytes @ 0x1B
   969  003B                     	ds	1
   970  003C                     WriteInt_LCD@dato:	
   971  003C                     ___flmul@aexp:	
   972                           ; 1 bytes @ 0x1C
   973                           
   974                           
   975                           ; 1 bytes @ 0x1C
   976  003C                     	ds	1
   977  003D                     WriteInt_LCD@output1:	
   978  003D                     ___flmul@grs:	
   979                           ; 3 bytes @ 0x1D
   980                           
   981                           
   982                           ; 4 bytes @ 0x1D
   983  003D                     	ds	4
   984  0041                     ___flmul@bexp:	
   985                           
   986                           ; 1 bytes @ 0x21
   987  0041                     	ds	1
   988  0042                     ___flmul@prod:	
   989                           
   990                           ; 4 bytes @ 0x22
   991  0042                     	ds	4
   992  0046                     ___flmul@temp:	
   993                           
   994                           ; 2 bytes @ 0x26
   995  0046                     	ds	2
   996  0048                     ?_FloatDec:	
   997  0048                     ?___fldiv:	
   998                           ; 1 bytes @ 0x28
   999                           
  1000  0048                     FloatDec@Variable:	
  1001                           ; 4 bytes @ 0x28
  1002                           
  1003  0048                     ___fldiv@a:	
  1004                           ; 4 bytes @ 0x28
  1005                           
  1006                           
  1007                           ; 4 bytes @ 0x28
  1008  0048                     	ds	4
  1009  004C                     FloatDec@Selector:	
  1010  004C                     ___fldiv@b:	
  1011                           ; 1 bytes @ 0x2C
  1012                           
  1013                           
  1014                           ; 4 bytes @ 0x2C
  1015  004C                     	ds	1
  1016  004D                     ??_FloatDec:	
  1017                           
  1018                           ; 1 bytes @ 0x2D
  1019  004D                     	ds	3
  1020  0050                     ??___fldiv:	
  1021                           
  1022                           ; 1 bytes @ 0x30
  1023  0050                     	ds	5
  1024  0055                     ___fldiv@rem:	
  1025                           
  1026                           ; 4 bytes @ 0x35
  1027  0055                     	ds	4
  1028  0059                     ___fldiv@sign:	
  1029                           
  1030                           ; 1 bytes @ 0x39
  1031  0059                     	ds	1
  1032  005A                     ___fldiv@new_exp:	
  1033                           
  1034                           ; 2 bytes @ 0x3A
  1035  005A                     	ds	2
  1036  005C                     ___fldiv@grs:	
  1037                           
  1038                           ; 4 bytes @ 0x3C
  1039  005C                     	ds	4
  1040  0060                     ___fldiv@bexp:	
  1041                           
  1042                           ; 1 bytes @ 0x40
  1043  0060                     	ds	1
  1044  0061                     ___fldiv@aexp:	
  1045                           
  1046                           ; 1 bytes @ 0x41
  1047  0061                     	ds	1
  1048                           
  1049                           	psect	maintext
  1050  0DEA                     __pmaintext:	
  1051 ;;
  1052 ;;Main: autosize = 0, tempsize = 4, incstack = 0, save=0
  1053 ;;
  1054 ;; *************** function _main *****************
  1055 ;; Defined at:
  1056 ;;		line 82 in file "Laboratorio_3.c"
  1057 ;; Parameters:    Size  Location     Type
  1058 ;;		None
  1059 ;; Auto vars:     Size  Location     Type
  1060 ;;		None
  1061 ;; Return value:  Size  Location     Type
  1062 ;;                  1    wreg      void 
  1063 ;; Registers used:
  1064 ;;		wreg, fsr0l, fsr0h, status,2, status,0, btemp+1, pclath, cstack
  1065 ;; Tracked objects:
  1066 ;;		On entry : B00/0
  1067 ;;		On exit  : 0/0
  1068 ;;		Unchanged: 0/0
  1069 ;; Data sizes:     COMMON   BANK0   BANK1   BANK3   BANK2
  1070 ;;      Params:         0       0       0       0       0
  1071 ;;      Locals:         0       0       0       0       0
  1072 ;;      Temps:          0       0       4       0       0
  1073 ;;      Totals:         0       0       4       0       0
  1074 ;;Total ram usage:        4 bytes
  1075 ;; Hardware stack levels required when called:    5
  1076 ;; This function calls:
  1077 ;;		_Configuracion
  1078 ;;		_Envio
  1079 ;;		_FloatDec
  1080 ;;		_LCD_CmdWrite
  1081 ;;		_LCD_DataWrite
  1082 ;;		_WriteInt_LCD
  1083 ;;		___fldiv
  1084 ;;		___flge
  1085 ;;		___flmul
  1086 ;;		___fltol
  1087 ;;		___xxtofl
  1088 ;; This function is called by:
  1089 ;;		Startup code after reset
  1090 ;; This function uses a non-reentrant model
  1091 ;;
  1092                           
  1093                           
  1094                           ;psect for function _main
  1095  0DEA                     _main:	
  1096  0DEA                     l3212:	
  1097                           ;incstack = 0
  1098                           ; Regs used in _main: [wreg-fsr0h+status,2+status,0+btemp+1+pclath+cstack]
  1099                           
  1100                           
  1101                           ;Laboratorio_3.c: 84:     Configuracion();
  1102  0DEA  160A  118A  27C6  120A  158A  	fcall	_Configuracion
  1103  0DEF                     l3214:	
  1104                           
  1105                           ;Laboratorio_3.c: 86:     LCD_DataWrite(" S1    S2    S3 ");
  1106  0DEF  300B               	movlw	(low ((STR_2-__stringbase)| (0+32768)))& (0+255)
  1107  0DF0  1283               	bcf	3,5	;RP0=0, select bank0
  1108  0DF1  1303               	bcf	3,6	;RP1=0, select bank0
  1109  0DF2  00A0               	movwf	LCD_DataWrite@dato
  1110  0DF3  3080               	movlw	128
  1111  0DF4  00A1               	movwf	LCD_DataWrite@dato+1
  1112  0DF5  120A  158A  207D  120A  158A  	fcall	_LCD_DataWrite
  1113  0DFA                     l3216:	
  1114                           
  1115                           ;Laboratorio_3.c: 89:         f1 = (((float)Pot_1 * 5) / 255);
  1116  0DFA  3043               	movlw	67
  1117  0DFB  1283               	bcf	3,5	;RP0=0, select bank0
  1118  0DFC  1303               	bcf	3,6	;RP1=0, select bank0
  1119  0DFD  00CB               	movwf	___fldiv@a+3
  1120  0DFE  307F               	movlw	127
  1121  0DFF  00CA               	movwf	___fldiv@a+2
  1122  0E00  3000               	movlw	0
  1123  0E01  00C9               	movwf	___fldiv@a+1
  1124  0E02  3000               	movlw	0
  1125  0E03  00C8               	movwf	___fldiv@a
  1126  0E04  3040               	movlw	64
  1127  0E05  00B1               	movwf	___flmul@b+3
  1128  0E06  30A0               	movlw	160
  1129  0E07  00B0               	movwf	___flmul@b+2
  1130  0E08  3000               	movlw	0
  1131  0E09  00AF               	movwf	___flmul@b+1
  1132  0E0A  3000               	movlw	0
  1133  0E0B  00AE               	movwf	___flmul@b
  1134  0E0C  086B               	movf	_Pot_1,w
  1135  0E0D  1683               	bsf	3,5	;RP0=1, select bank1
  1136  0E0E  1303               	bcf	3,6	;RP1=0, select bank1
  1137  0E0F  00B8               	movwf	??_main^(0+128)
  1138  0E10  01B9               	clrf	(??_main^(0+128)+1)
  1139  0E11  01BA               	clrf	(??_main^(0+128)+2)
  1140  0E12  01BB               	clrf	(??_main^(0+128)+3)
  1141  0E13  083B               	movf	(??_main+3)^(0+128),w
  1142  0E14  1283               	bcf	3,5	;RP0=0, select bank0
  1143  0E15  1303               	bcf	3,6	;RP1=0, select bank0
  1144  0E16  00A3               	movwf	___xxtofl@val+3
  1145  0E17  1683               	bsf	3,5	;RP0=1, select bank1
  1146  0E18  1303               	bcf	3,6	;RP1=0, select bank1
  1147  0E19  083A               	movf	(??_main+2)^(0+128),w
  1148  0E1A  1283               	bcf	3,5	;RP0=0, select bank0
  1149  0E1B  1303               	bcf	3,6	;RP1=0, select bank0
  1150  0E1C  00A2               	movwf	___xxtofl@val+2
  1151  0E1D  1683               	bsf	3,5	;RP0=1, select bank1
  1152  0E1E  1303               	bcf	3,6	;RP1=0, select bank1
  1153  0E1F  0839               	movf	(??_main+1)^(0+128),w
  1154  0E20  1283               	bcf	3,5	;RP0=0, select bank0
  1155  0E21  1303               	bcf	3,6	;RP1=0, select bank0
  1156  0E22  00A1               	movwf	___xxtofl@val+1
  1157  0E23  1683               	bsf	3,5	;RP0=1, select bank1
  1158  0E24  1303               	bcf	3,6	;RP1=0, select bank1
  1159  0E25  0838               	movf	??_main^(0+128),w
  1160  0E26  1283               	bcf	3,5	;RP0=0, select bank0
  1161  0E27  1303               	bcf	3,6	;RP1=0, select bank0
  1162  0E28  00A0               	movwf	___xxtofl@val
  1163  0E29  3000               	movlw	0
  1164  0E2A  120A  158A  2336  120A  158A  	fcall	___xxtofl
  1165  0E2F  1283               	bcf	3,5	;RP0=0, select bank0
  1166  0E30  1303               	bcf	3,6	;RP1=0, select bank0
  1167  0E31  0823               	movf	?___xxtofl+3,w
  1168  0E32  00B5               	movwf	___flmul@a+3
  1169  0E33  0822               	movf	?___xxtofl+2,w
  1170  0E34  00B4               	movwf	___flmul@a+2
  1171  0E35  0821               	movf	?___xxtofl+1,w
  1172  0E36  00B3               	movwf	___flmul@a+1
  1173  0E37  0820               	movf	?___xxtofl,w
  1174  0E38  00B2               	movwf	___flmul@a
  1175  0E39  120A  118A  2031  120A  158A  	fcall	___flmul
  1176  0E3E  1283               	bcf	3,5	;RP0=0, select bank0
  1177  0E3F  1303               	bcf	3,6	;RP1=0, select bank0
  1178  0E40  0831               	movf	?___flmul+3,w
  1179  0E41  00CF               	movwf	___fldiv@b+3
  1180  0E42  0830               	movf	?___flmul+2,w
  1181  0E43  00CE               	movwf	___fldiv@b+2
  1182  0E44  082F               	movf	?___flmul+1,w
  1183  0E45  00CD               	movwf	___fldiv@b+1
  1184  0E46  082E               	movf	?___flmul,w
  1185  0E47  00CC               	movwf	___fldiv@b
  1186  0E48  120A  118A  261A  120A  158A  	fcall	___fldiv
  1187  0E4D  1283               	bcf	3,5	;RP0=0, select bank0
  1188  0E4E  1303               	bcf	3,6	;RP1=0, select bank0
  1189  0E4F  084B               	movf	?___fldiv+3,w
  1190  0E50  1683               	bsf	3,5	;RP0=1, select bank1
  1191  0E51  1303               	bcf	3,6	;RP1=0, select bank1
  1192  0E52  00B7               	movwf	(_f1+3)^(0+128)
  1193  0E53  1283               	bcf	3,5	;RP0=0, select bank0
  1194  0E54  1303               	bcf	3,6	;RP1=0, select bank0
  1195  0E55  084A               	movf	?___fldiv+2,w
  1196  0E56  1683               	bsf	3,5	;RP0=1, select bank1
  1197  0E57  1303               	bcf	3,6	;RP1=0, select bank1
  1198  0E58  00B6               	movwf	(_f1+2)^(0+128)
  1199  0E59  1283               	bcf	3,5	;RP0=0, select bank0
  1200  0E5A  1303               	bcf	3,6	;RP1=0, select bank0
  1201  0E5B  0849               	movf	?___fldiv+1,w
  1202  0E5C  1683               	bsf	3,5	;RP0=1, select bank1
  1203  0E5D  1303               	bcf	3,6	;RP1=0, select bank1
  1204  0E5E  00B5               	movwf	(_f1+1)^(0+128)
  1205  0E5F  1283               	bcf	3,5	;RP0=0, select bank0
  1206  0E60  1303               	bcf	3,6	;RP1=0, select bank0
  1207  0E61  0848               	movf	?___fldiv,w
  1208  0E62  1683               	bsf	3,5	;RP0=1, select bank1
  1209  0E63  1303               	bcf	3,6	;RP1=0, select bank1
  1210  0E64  00B4               	movwf	_f1^(0+128)
  1211  0E65                     l3218:	
  1212                           
  1213                           ;Laboratorio_3.c: 90:         f2 = (((float)Pot_2 * 5) / 255);
  1214  0E65  3043               	movlw	67
  1215  0E66  1283               	bcf	3,5	;RP0=0, select bank0
  1216  0E67  1303               	bcf	3,6	;RP1=0, select bank0
  1217  0E68  00CB               	movwf	___fldiv@a+3
  1218  0E69  307F               	movlw	127
  1219  0E6A  00CA               	movwf	___fldiv@a+2
  1220  0E6B  3000               	movlw	0
  1221  0E6C  00C9               	movwf	___fldiv@a+1
  1222  0E6D  3000               	movlw	0
  1223  0E6E  00C8               	movwf	___fldiv@a
  1224  0E6F  3040               	movlw	64
  1225  0E70  00B1               	movwf	___flmul@b+3
  1226  0E71  30A0               	movlw	160
  1227  0E72  00B0               	movwf	___flmul@b+2
  1228  0E73  3000               	movlw	0
  1229  0E74  00AF               	movwf	___flmul@b+1
  1230  0E75  3000               	movlw	0
  1231  0E76  00AE               	movwf	___flmul@b
  1232  0E77  086A               	movf	_Pot_2,w
  1233  0E78  1683               	bsf	3,5	;RP0=1, select bank1
  1234  0E79  1303               	bcf	3,6	;RP1=0, select bank1
  1235  0E7A  00B8               	movwf	??_main^(0+128)
  1236  0E7B  01B9               	clrf	(??_main^(0+128)+1)
  1237  0E7C  01BA               	clrf	(??_main^(0+128)+2)
  1238  0E7D  01BB               	clrf	(??_main^(0+128)+3)
  1239  0E7E  083B               	movf	(??_main+3)^(0+128),w
  1240  0E7F  1283               	bcf	3,5	;RP0=0, select bank0
  1241  0E80  1303               	bcf	3,6	;RP1=0, select bank0
  1242  0E81  00A3               	movwf	___xxtofl@val+3
  1243  0E82  1683               	bsf	3,5	;RP0=1, select bank1
  1244  0E83  1303               	bcf	3,6	;RP1=0, select bank1
  1245  0E84  083A               	movf	(??_main+2)^(0+128),w
  1246  0E85  1283               	bcf	3,5	;RP0=0, select bank0
  1247  0E86  1303               	bcf	3,6	;RP1=0, select bank0
  1248  0E87  00A2               	movwf	___xxtofl@val+2
  1249  0E88  1683               	bsf	3,5	;RP0=1, select bank1
  1250  0E89  1303               	bcf	3,6	;RP1=0, select bank1
  1251  0E8A  0839               	movf	(??_main+1)^(0+128),w
  1252  0E8B  1283               	bcf	3,5	;RP0=0, select bank0
  1253  0E8C  1303               	bcf	3,6	;RP1=0, select bank0
  1254  0E8D  00A1               	movwf	___xxtofl@val+1
  1255  0E8E  1683               	bsf	3,5	;RP0=1, select bank1
  1256  0E8F  1303               	bcf	3,6	;RP1=0, select bank1
  1257  0E90  0838               	movf	??_main^(0+128),w
  1258  0E91  1283               	bcf	3,5	;RP0=0, select bank0
  1259  0E92  1303               	bcf	3,6	;RP1=0, select bank0
  1260  0E93  00A0               	movwf	___xxtofl@val
  1261  0E94  3000               	movlw	0
  1262  0E95  120A  158A  2336  120A  158A  	fcall	___xxtofl
  1263  0E9A  1283               	bcf	3,5	;RP0=0, select bank0
  1264  0E9B  1303               	bcf	3,6	;RP1=0, select bank0
  1265  0E9C  0823               	movf	?___xxtofl+3,w
  1266  0E9D  00B5               	movwf	___flmul@a+3
  1267  0E9E  0822               	movf	?___xxtofl+2,w
  1268  0E9F  00B4               	movwf	___flmul@a+2
  1269  0EA0  0821               	movf	?___xxtofl+1,w
  1270  0EA1  00B3               	movwf	___flmul@a+1
  1271  0EA2  0820               	movf	?___xxtofl,w
  1272  0EA3  00B2               	movwf	___flmul@a
  1273  0EA4  120A  118A  2031  120A  158A  	fcall	___flmul
  1274  0EA9  1283               	bcf	3,5	;RP0=0, select bank0
  1275  0EAA  1303               	bcf	3,6	;RP1=0, select bank0
  1276  0EAB  0831               	movf	?___flmul+3,w
  1277  0EAC  00CF               	movwf	___fldiv@b+3
  1278  0EAD  0830               	movf	?___flmul+2,w
  1279  0EAE  00CE               	movwf	___fldiv@b+2
  1280  0EAF  082F               	movf	?___flmul+1,w
  1281  0EB0  00CD               	movwf	___fldiv@b+1
  1282  0EB1  082E               	movf	?___flmul,w
  1283  0EB2  00CC               	movwf	___fldiv@b
  1284  0EB3  120A  118A  261A  120A  158A  	fcall	___fldiv
  1285  0EB8  1283               	bcf	3,5	;RP0=0, select bank0
  1286  0EB9  1303               	bcf	3,6	;RP1=0, select bank0
  1287  0EBA  084B               	movf	?___fldiv+3,w
  1288  0EBB  1683               	bsf	3,5	;RP0=1, select bank1
  1289  0EBC  1303               	bcf	3,6	;RP1=0, select bank1
  1290  0EBD  00AB               	movwf	(_f2+3)^(0+128)
  1291  0EBE  1283               	bcf	3,5	;RP0=0, select bank0
  1292  0EBF  1303               	bcf	3,6	;RP1=0, select bank0
  1293  0EC0  084A               	movf	?___fldiv+2,w
  1294  0EC1  1683               	bsf	3,5	;RP0=1, select bank1
  1295  0EC2  1303               	bcf	3,6	;RP1=0, select bank1
  1296  0EC3  00AA               	movwf	(_f2+2)^(0+128)
  1297  0EC4  1283               	bcf	3,5	;RP0=0, select bank0
  1298  0EC5  1303               	bcf	3,6	;RP1=0, select bank0
  1299  0EC6  0849               	movf	?___fldiv+1,w
  1300  0EC7  1683               	bsf	3,5	;RP0=1, select bank1
  1301  0EC8  1303               	bcf	3,6	;RP1=0, select bank1
  1302  0EC9  00A9               	movwf	(_f2+1)^(0+128)
  1303  0ECA  1283               	bcf	3,5	;RP0=0, select bank0
  1304  0ECB  1303               	bcf	3,6	;RP1=0, select bank0
  1305  0ECC  0848               	movf	?___fldiv,w
  1306  0ECD  1683               	bsf	3,5	;RP0=1, select bank1
  1307  0ECE  1303               	bcf	3,6	;RP1=0, select bank1
  1308  0ECF  00A8               	movwf	_f2^(0+128)
  1309  0ED0                     l3220:	
  1310                           
  1311                           ;Laboratorio_3.c: 91:         FloatDec(f1,0);
  1312  0ED0  0837               	movf	(_f1+3)^(0+128),w
  1313  0ED1  1283               	bcf	3,5	;RP0=0, select bank0
  1314  0ED2  1303               	bcf	3,6	;RP1=0, select bank0
  1315  0ED3  00CB               	movwf	FloatDec@Variable+3
  1316  0ED4  1683               	bsf	3,5	;RP0=1, select bank1
  1317  0ED5  1303               	bcf	3,6	;RP1=0, select bank1
  1318  0ED6  0836               	movf	(_f1+2)^(0+128),w
  1319  0ED7  1283               	bcf	3,5	;RP0=0, select bank0
  1320  0ED8  1303               	bcf	3,6	;RP1=0, select bank0
  1321  0ED9  00CA               	movwf	FloatDec@Variable+2
  1322  0EDA  1683               	bsf	3,5	;RP0=1, select bank1
  1323  0EDB  1303               	bcf	3,6	;RP1=0, select bank1
  1324  0EDC  0835               	movf	(_f1+1)^(0+128),w
  1325  0EDD  1283               	bcf	3,5	;RP0=0, select bank0
  1326  0EDE  1303               	bcf	3,6	;RP1=0, select bank0
  1327  0EDF  00C9               	movwf	FloatDec@Variable+1
  1328  0EE0  1683               	bsf	3,5	;RP0=1, select bank1
  1329  0EE1  1303               	bcf	3,6	;RP1=0, select bank1
  1330  0EE2  0834               	movf	_f1^(0+128),w
  1331  0EE3  1283               	bcf	3,5	;RP0=0, select bank0
  1332  0EE4  1303               	bcf	3,6	;RP1=0, select bank0
  1333  0EE5  00C8               	movwf	FloatDec@Variable
  1334  0EE6  01CC               	clrf	FloatDec@Selector
  1335  0EE7  120A  158A  24DC  120A  158A  	fcall	_FloatDec
  1336  0EEC                     l3222:	
  1337                           
  1338                           ;Laboratorio_3.c: 92:         FloatDec(f2,1);
  1339  0EEC  1683               	bsf	3,5	;RP0=1, select bank1
  1340  0EED  1303               	bcf	3,6	;RP1=0, select bank1
  1341  0EEE  082B               	movf	(_f2+3)^(0+128),w
  1342  0EEF  1283               	bcf	3,5	;RP0=0, select bank0
  1343  0EF0  1303               	bcf	3,6	;RP1=0, select bank0
  1344  0EF1  00CB               	movwf	FloatDec@Variable+3
  1345  0EF2  1683               	bsf	3,5	;RP0=1, select bank1
  1346  0EF3  1303               	bcf	3,6	;RP1=0, select bank1
  1347  0EF4  082A               	movf	(_f2+2)^(0+128),w
  1348  0EF5  1283               	bcf	3,5	;RP0=0, select bank0
  1349  0EF6  1303               	bcf	3,6	;RP1=0, select bank0
  1350  0EF7  00CA               	movwf	FloatDec@Variable+2
  1351  0EF8  1683               	bsf	3,5	;RP0=1, select bank1
  1352  0EF9  1303               	bcf	3,6	;RP1=0, select bank1
  1353  0EFA  0829               	movf	(_f2+1)^(0+128),w
  1354  0EFB  1283               	bcf	3,5	;RP0=0, select bank0
  1355  0EFC  1303               	bcf	3,6	;RP1=0, select bank0
  1356  0EFD  00C9               	movwf	FloatDec@Variable+1
  1357  0EFE  1683               	bsf	3,5	;RP0=1, select bank1
  1358  0EFF  1303               	bcf	3,6	;RP1=0, select bank1
  1359  0F00  0828               	movf	_f2^(0+128),w
  1360  0F01  1283               	bcf	3,5	;RP0=0, select bank0
  1361  0F02  1303               	bcf	3,6	;RP1=0, select bank0
  1362  0F03  00C8               	movwf	FloatDec@Variable
  1363  0F04  01CC               	clrf	FloatDec@Selector
  1364  0F05  0ACC               	incf	FloatDec@Selector,f
  1365  0F06  120A  158A  24DC  120A  158A  	fcall	_FloatDec
  1366  0F0B                     l3224:	
  1367                           
  1368                           ;Laboratorio_3.c: 93:         LCD_CmdWrite(0xC0);
  1369  0F0B  30C0               	movlw	192
  1370  0F0C  120A  158A  20CE  120A  158A  	fcall	_LCD_CmdWrite
  1371                           
  1372                           ;Laboratorio_3.c: 94:         WriteInt_LCD(Dec_1);
  1373  0F11  1283               	bcf	3,5	;RP0=0, select bank0
  1374  0F12  1303               	bcf	3,6	;RP1=0, select bank0
  1375  0F13  0867               	movf	_Dec_1,w
  1376  0F14  120A  158A  2039  120A  158A  	fcall	_WriteInt_LCD
  1377                           
  1378                           ;Laboratorio_3.c: 95:         LCD_DataWrite(".");
  1379  0F19  3025               	movlw	(low ((STR_3-__stringbase)| (0+32768)))& (0+255)
  1380  0F1A  1283               	bcf	3,5	;RP0=0, select bank0
  1381  0F1B  1303               	bcf	3,6	;RP1=0, select bank0
  1382  0F1C  00A0               	movwf	LCD_DataWrite@dato
  1383  0F1D  3080               	movlw	128
  1384  0F1E  00A1               	movwf	LCD_DataWrite@dato+1
  1385  0F1F  120A  158A  207D  120A  158A  	fcall	_LCD_DataWrite
  1386  0F24                     l3226:	
  1387                           
  1388                           ;Laboratorio_3.c: 96:         if(Uni_1 < 10){
  1389  0F24  1283               	bcf	3,5	;RP0=0, select bank0
  1390  0F25  1303               	bcf	3,6	;RP1=0, select bank0
  1391  0F26  0865               	movf	_Uni_1+3,w
  1392  0F27  00A3               	movwf	___flge@ff1+3
  1393  0F28  0864               	movf	_Uni_1+2,w
  1394  0F29  00A2               	movwf	___flge@ff1+2
  1395  0F2A  0863               	movf	_Uni_1+1,w
  1396  0F2B  00A1               	movwf	___flge@ff1+1
  1397  0F2C  0862               	movf	_Uni_1,w
  1398  0F2D  00A0               	movwf	___flge@ff1
  1399  0F2E  3041               	movlw	65
  1400  0F2F  00A7               	movwf	___flge@ff2+3
  1401  0F30  3020               	movlw	32
  1402  0F31  00A6               	movwf	___flge@ff2+2
  1403  0F32  3000               	movlw	0
  1404  0F33  00A5               	movwf	___flge@ff2+1
  1405  0F34  3000               	movlw	0
  1406  0F35  00A4               	movwf	___flge@ff2
  1407  0F36  120A  158A  2292  120A  158A  	fcall	___flge
  1408  0F3B  1803               	btfsc	3,0
  1409  0F3C  2F3E               	goto	u5021
  1410  0F3D  2F3F               	goto	u5020
  1411  0F3E                     u5021:	
  1412  0F3E  2F45               	goto	l148
  1413  0F3F                     u5020:	
  1414  0F3F                     l3228:	
  1415                           
  1416                           ;Laboratorio_3.c: 97:             WriteInt_LCD(0);
  1417  0F3F  3000               	movlw	0
  1418  0F40  120A  158A  2039  120A  158A  	fcall	_WriteInt_LCD
  1419  0F45                     l148:	
  1420                           ;Laboratorio_3.c: 98:         }
  1421                           
  1422                           
  1423                           ;Laboratorio_3.c: 99:         WriteInt_LCD(Uni_1);
  1424  0F45  1283               	bcf	3,5	;RP0=0, select bank0
  1425  0F46  1303               	bcf	3,6	;RP1=0, select bank0
  1426  0F47  0865               	movf	_Uni_1+3,w
  1427  0F48  00A3               	movwf	___fltol@f1+3
  1428  0F49  0864               	movf	_Uni_1+2,w
  1429  0F4A  00A2               	movwf	___fltol@f1+2
  1430  0F4B  0863               	movf	_Uni_1+1,w
  1431  0F4C  00A1               	movwf	___fltol@f1+1
  1432  0F4D  0862               	movf	_Uni_1,w
  1433  0F4E  00A0               	movwf	___fltol@f1
  1434  0F4F  120A  158A  2216  120A  158A  	fcall	___fltol
  1435  0F54  1283               	bcf	3,5	;RP0=0, select bank0
  1436  0F55  1303               	bcf	3,6	;RP1=0, select bank0
  1437  0F56  0820               	movf	?___fltol,w
  1438  0F57  120A  158A  2039  120A  158A  	fcall	_WriteInt_LCD
  1439                           
  1440                           ;Laboratorio_3.c: 100:         LCD_DataWrite("V ");
  1441  0F5C  301F               	movlw	(low ((STR_4-__stringbase)| (0+32768)))& (0+255)
  1442  0F5D  1283               	bcf	3,5	;RP0=0, select bank0
  1443  0F5E  1303               	bcf	3,6	;RP1=0, select bank0
  1444  0F5F  00A0               	movwf	LCD_DataWrite@dato
  1445  0F60  3080               	movlw	128
  1446  0F61  00A1               	movwf	LCD_DataWrite@dato+1
  1447  0F62  120A  158A  207D  120A  158A  	fcall	_LCD_DataWrite
  1448                           
  1449                           ;Laboratorio_3.c: 103:         WriteInt_LCD(Dec_2);
  1450  0F67  1283               	bcf	3,5	;RP0=0, select bank0
  1451  0F68  1303               	bcf	3,6	;RP1=0, select bank0
  1452  0F69  0866               	movf	_Dec_2,w
  1453  0F6A  120A  158A  2039  120A  158A  	fcall	_WriteInt_LCD
  1454                           
  1455                           ;Laboratorio_3.c: 104:         LCD_DataWrite(".");
  1456  0F6F  3025               	movlw	(low ((STR_3-__stringbase)| (0+32768)))& (0+255)
  1457  0F70  1283               	bcf	3,5	;RP0=0, select bank0
  1458  0F71  1303               	bcf	3,6	;RP1=0, select bank0
  1459  0F72  00A0               	movwf	LCD_DataWrite@dato
  1460  0F73  3080               	movlw	128
  1461  0F74  00A1               	movwf	LCD_DataWrite@dato+1
  1462  0F75  120A  158A  207D  120A  158A  	fcall	_LCD_DataWrite
  1463  0F7A                     l3230:	
  1464                           
  1465                           ;Laboratorio_3.c: 105:         if(Uni_2 < 10){
  1466  0F7A  1683               	bsf	3,5	;RP0=1, select bank1
  1467  0F7B  1303               	bcf	3,6	;RP1=0, select bank1
  1468  0F7C  0833               	movf	(_Uni_2+3)^(0+128),w
  1469  0F7D  1283               	bcf	3,5	;RP0=0, select bank0
  1470  0F7E  1303               	bcf	3,6	;RP1=0, select bank0
  1471  0F7F  00A3               	movwf	___flge@ff1+3
  1472  0F80  1683               	bsf	3,5	;RP0=1, select bank1
  1473  0F81  1303               	bcf	3,6	;RP1=0, select bank1
  1474  0F82  0832               	movf	(_Uni_2+2)^(0+128),w
  1475  0F83  1283               	bcf	3,5	;RP0=0, select bank0
  1476  0F84  1303               	bcf	3,6	;RP1=0, select bank0
  1477  0F85  00A2               	movwf	___flge@ff1+2
  1478  0F86  1683               	bsf	3,5	;RP0=1, select bank1
  1479  0F87  1303               	bcf	3,6	;RP1=0, select bank1
  1480  0F88  0831               	movf	(_Uni_2+1)^(0+128),w
  1481  0F89  1283               	bcf	3,5	;RP0=0, select bank0
  1482  0F8A  1303               	bcf	3,6	;RP1=0, select bank0
  1483  0F8B  00A1               	movwf	___flge@ff1+1
  1484  0F8C  1683               	bsf	3,5	;RP0=1, select bank1
  1485  0F8D  1303               	bcf	3,6	;RP1=0, select bank1
  1486  0F8E  0830               	movf	_Uni_2^(0+128),w
  1487  0F8F  1283               	bcf	3,5	;RP0=0, select bank0
  1488  0F90  1303               	bcf	3,6	;RP1=0, select bank0
  1489  0F91  00A0               	movwf	___flge@ff1
  1490  0F92  3041               	movlw	65
  1491  0F93  00A7               	movwf	___flge@ff2+3
  1492  0F94  3020               	movlw	32
  1493  0F95  00A6               	movwf	___flge@ff2+2
  1494  0F96  3000               	movlw	0
  1495  0F97  00A5               	movwf	___flge@ff2+1
  1496  0F98  3000               	movlw	0
  1497  0F99  00A4               	movwf	___flge@ff2
  1498  0F9A  120A  158A  2292  120A  158A  	fcall	___flge
  1499  0F9F  1803               	btfsc	3,0
  1500  0FA0  2FA2               	goto	u5031
  1501  0FA1  2FA3               	goto	u5030
  1502  0FA2                     u5031:	
  1503  0FA2  2FA9               	goto	l149
  1504  0FA3                     u5030:	
  1505  0FA3                     l3232:	
  1506                           
  1507                           ;Laboratorio_3.c: 106:             WriteInt_LCD(0);
  1508  0FA3  3000               	movlw	0
  1509  0FA4  120A  158A  2039  120A  158A  	fcall	_WriteInt_LCD
  1510  0FA9                     l149:	
  1511                           ;Laboratorio_3.c: 107:         }
  1512                           
  1513                           
  1514                           ;Laboratorio_3.c: 108:         WriteInt_LCD(Uni_2);
  1515  0FA9  1683               	bsf	3,5	;RP0=1, select bank1
  1516  0FAA  1303               	bcf	3,6	;RP1=0, select bank1
  1517  0FAB  0833               	movf	(_Uni_2+3)^(0+128),w
  1518  0FAC  1283               	bcf	3,5	;RP0=0, select bank0
  1519  0FAD  1303               	bcf	3,6	;RP1=0, select bank0
  1520  0FAE  00A3               	movwf	___fltol@f1+3
  1521  0FAF  1683               	bsf	3,5	;RP0=1, select bank1
  1522  0FB0  1303               	bcf	3,6	;RP1=0, select bank1
  1523  0FB1  0832               	movf	(_Uni_2+2)^(0+128),w
  1524  0FB2  1283               	bcf	3,5	;RP0=0, select bank0
  1525  0FB3  1303               	bcf	3,6	;RP1=0, select bank0
  1526  0FB4  00A2               	movwf	___fltol@f1+2
  1527  0FB5  1683               	bsf	3,5	;RP0=1, select bank1
  1528  0FB6  1303               	bcf	3,6	;RP1=0, select bank1
  1529  0FB7  0831               	movf	(_Uni_2+1)^(0+128),w
  1530  0FB8  1283               	bcf	3,5	;RP0=0, select bank0
  1531  0FB9  1303               	bcf	3,6	;RP1=0, select bank0
  1532  0FBA  00A1               	movwf	___fltol@f1+1
  1533  0FBB  1683               	bsf	3,5	;RP0=1, select bank1
  1534  0FBC  1303               	bcf	3,6	;RP1=0, select bank1
  1535  0FBD  0830               	movf	_Uni_2^(0+128),w
  1536  0FBE  1283               	bcf	3,5	;RP0=0, select bank0
  1537  0FBF  1303               	bcf	3,6	;RP1=0, select bank0
  1538  0FC0  00A0               	movwf	___fltol@f1
  1539  0FC1  120A  158A  2216  120A  158A  	fcall	___fltol
  1540  0FC6  1283               	bcf	3,5	;RP0=0, select bank0
  1541  0FC7  1303               	bcf	3,6	;RP1=0, select bank0
  1542  0FC8  0820               	movf	?___fltol,w
  1543  0FC9  120A  158A  2039  120A  158A  	fcall	_WriteInt_LCD
  1544                           
  1545                           ;Laboratorio_3.c: 109:         LCD_DataWrite("V ");
  1546  0FCE  301F               	movlw	(low ((STR_4-__stringbase)| (0+32768)))& (0+255)
  1547  0FCF  1283               	bcf	3,5	;RP0=0, select bank0
  1548  0FD0  1303               	bcf	3,6	;RP1=0, select bank0
  1549  0FD1  00A0               	movwf	LCD_DataWrite@dato
  1550  0FD2  3080               	movlw	128
  1551  0FD3  00A1               	movwf	LCD_DataWrite@dato+1
  1552  0FD4  120A  158A  207D  120A  158A  	fcall	_LCD_DataWrite
  1553                           
  1554                           ;Laboratorio_3.c: 111:         WriteInt_LCD(Counter);
  1555  0FD9  1283               	bcf	3,5	;RP0=0, select bank0
  1556  0FDA  1303               	bcf	3,6	;RP1=0, select bank0
  1557  0FDB  086C               	movf	_Counter,w
  1558  0FDC  120A  158A  2039  120A  158A  	fcall	_WriteInt_LCD
  1559                           
  1560                           ;Laboratorio_3.c: 112:         LCD_DataWrite("  ");
  1561  0FE1  301C               	movlw	(low ((STR_7-__stringbase)| (0+32768)))& (0+255)
  1562  0FE2  1283               	bcf	3,5	;RP0=0, select bank0
  1563  0FE3  1303               	bcf	3,6	;RP1=0, select bank0
  1564  0FE4  00A0               	movwf	LCD_DataWrite@dato
  1565  0FE5  3080               	movlw	128
  1566  0FE6  00A1               	movwf	LCD_DataWrite@dato+1
  1567  0FE7  120A  158A  207D  120A  158A  	fcall	_LCD_DataWrite
  1568  0FEC                     l3234:	
  1569                           
  1570                           ;Laboratorio_3.c: 116:         Envio(Pot_2);
  1571  0FEC  1283               	bcf	3,5	;RP0=0, select bank0
  1572  0FED  1303               	bcf	3,6	;RP1=0, select bank0
  1573  0FEE  086A               	movf	_Pot_2,w
  1574  0FEF  160A  118A  278C  120A  158A  	fcall	_Envio
  1575  0FF4                     l3236:	
  1576                           
  1577                           ;Laboratorio_3.c: 117:         Envio(Pot_1);
  1578  0FF4  1283               	bcf	3,5	;RP0=0, select bank0
  1579  0FF5  1303               	bcf	3,6	;RP1=0, select bank0
  1580  0FF6  086B               	movf	_Pot_1,w
  1581  0FF7  160A  118A  278C  120A  158A  	fcall	_Envio
  1582  0FFC  2DFA               	goto	l3216
  1583  0FFD  120A  118A  280C   	ljmp	start
  1584  1000                     __end_of_main:	
  1585                           
  1586                           	psect	text1
  1587  0A92                     __ptext1:	
  1588 ;; *************** function ___flge *****************
  1589 ;; Defined at:
  1590 ;;		line 4 in file "D:\Xc8\pic\sources\c90\common\flge.c"
  1591 ;; Parameters:    Size  Location     Type
  1592 ;;  ff1             4    0[BANK0 ] void 
  1593 ;;  ff2             4    4[BANK0 ] void 
  1594 ;; Auto vars:     Size  Location     Type
  1595 ;;		None
  1596 ;; Return value:  Size  Location     Type
  1597 ;;		None               void
  1598 ;; Registers used:
  1599 ;;		wreg, status,2, status,0
  1600 ;; Tracked objects:
  1601 ;;		On entry : 0/0
  1602 ;;		On exit  : 0/0
  1603 ;;		Unchanged: 0/0
  1604 ;; Data sizes:     COMMON   BANK0   BANK1   BANK3   BANK2
  1605 ;;      Params:         0       8       0       0       0
  1606 ;;      Locals:         0       0       0       0       0
  1607 ;;      Temps:          0       4       0       0       0
  1608 ;;      Totals:         0      12       0       0       0
  1609 ;;Total ram usage:       12 bytes
  1610 ;; Hardware stack levels used:    1
  1611 ;; Hardware stack levels required when called:    2
  1612 ;; This function calls:
  1613 ;;		Nothing
  1614 ;; This function is called by:
  1615 ;;		_main
  1616 ;; This function uses a non-reentrant model
  1617 ;;
  1618                           
  1619                           
  1620                           ;psect for function ___flge
  1621  0A92                     ___flge:	
  1622  0A92                     l3192:	
  1623                           ;incstack = 0
  1624                           ; Regs used in ___flge: [wreg+status,2+status,0]
  1625                           
  1626  0A92  3000               	movlw	0
  1627  0A93  1283               	bcf	3,5	;RP0=0, select bank0
  1628  0A94  1303               	bcf	3,6	;RP1=0, select bank0
  1629  0A95  0520               	andwf	___flge@ff1,w
  1630  0A96  00A8               	movwf	??___flge
  1631  0A97  3000               	movlw	0
  1632  0A98  0521               	andwf	___flge@ff1+1,w
  1633  0A99  00A9               	movwf	??___flge+1
  1634  0A9A  3080               	movlw	128
  1635  0A9B  0522               	andwf	___flge@ff1+2,w
  1636  0A9C  00AA               	movwf	??___flge+2
  1637  0A9D  307F               	movlw	127
  1638  0A9E  0523               	andwf	___flge@ff1+3,w
  1639  0A9F  00AB               	movwf	??___flge+3
  1640  0AA0  082B               	movf	??___flge+3,w
  1641  0AA1  042A               	iorwf	??___flge+2,w
  1642  0AA2  0429               	iorwf	??___flge+1,w
  1643  0AA3  0428               	iorwf	??___flge,w
  1644  0AA4  1D03               	skipz
  1645  0AA5  2AA7               	goto	u4951
  1646  0AA6  2AA8               	goto	u4950
  1647  0AA7                     u4951:	
  1648  0AA7  2AB0               	goto	l454
  1649  0AA8                     u4950:	
  1650  0AA8                     l3194:	
  1651  0AA8  3000               	movlw	0
  1652  0AA9  00A3               	movwf	___flge@ff1+3
  1653  0AAA  3000               	movlw	0
  1654  0AAB  00A2               	movwf	___flge@ff1+2
  1655  0AAC  3000               	movlw	0
  1656  0AAD  00A1               	movwf	___flge@ff1+1
  1657  0AAE  3000               	movlw	0
  1658  0AAF  00A0               	movwf	___flge@ff1
  1659  0AB0                     l454:	
  1660  0AB0  3000               	movlw	0
  1661  0AB1  0524               	andwf	___flge@ff2,w
  1662  0AB2  00A8               	movwf	??___flge
  1663  0AB3  3000               	movlw	0
  1664  0AB4  0525               	andwf	___flge@ff2+1,w
  1665  0AB5  00A9               	movwf	??___flge+1
  1666  0AB6  3080               	movlw	128
  1667  0AB7  0526               	andwf	___flge@ff2+2,w
  1668  0AB8  00AA               	movwf	??___flge+2
  1669  0AB9  307F               	movlw	127
  1670  0ABA  0527               	andwf	___flge@ff2+3,w
  1671  0ABB  00AB               	movwf	??___flge+3
  1672  0ABC  082B               	movf	??___flge+3,w
  1673  0ABD  042A               	iorwf	??___flge+2,w
  1674  0ABE  0429               	iorwf	??___flge+1,w
  1675  0ABF  0428               	iorwf	??___flge,w
  1676  0AC0  1D03               	skipz
  1677  0AC1  2AC3               	goto	u4961
  1678  0AC2  2AC4               	goto	u4960
  1679  0AC3                     u4961:	
  1680  0AC3  2ACC               	goto	l3198
  1681  0AC4                     u4960:	
  1682  0AC4                     l3196:	
  1683  0AC4  3000               	movlw	0
  1684  0AC5  00A7               	movwf	___flge@ff2+3
  1685  0AC6  3000               	movlw	0
  1686  0AC7  00A6               	movwf	___flge@ff2+2
  1687  0AC8  3000               	movlw	0
  1688  0AC9  00A5               	movwf	___flge@ff2+1
  1689  0ACA  3000               	movlw	0
  1690  0ACB  00A4               	movwf	___flge@ff2
  1691  0ACC                     l3198:	
  1692  0ACC  1FA3               	btfss	___flge@ff1+3,7
  1693  0ACD  2ACF               	goto	u4971
  1694  0ACE  2AD0               	goto	u4970
  1695  0ACF                     u4971:	
  1696  0ACF  2AF4               	goto	l3202
  1697  0AD0                     u4970:	
  1698  0AD0                     l3200:	
  1699  0AD0  3000               	movlw	0
  1700  0AD1  00A8               	movwf	??___flge
  1701  0AD2  3000               	movlw	0
  1702  0AD3  00A9               	movwf	??___flge+1
  1703  0AD4  3000               	movlw	0
  1704  0AD5  00AA               	movwf	??___flge+2
  1705  0AD6  3080               	movlw	128
  1706  0AD7  00AB               	movwf	??___flge+3
  1707  0AD8  0820               	movf	___flge@ff1,w
  1708  0AD9  02A8               	subwf	??___flge,f
  1709  0ADA  0821               	movf	___flge@ff1+1,w
  1710  0ADB  1C03               	skipc
  1711  0ADC  0F21               	incfsz	___flge@ff1+1,w
  1712  0ADD  2ADF               	goto	u4981
  1713  0ADE  2AE0               	goto	u4982
  1714  0ADF                     u4981:	
  1715  0ADF  02A9               	subwf	??___flge+1,f
  1716  0AE0                     u4982:	
  1717  0AE0  0822               	movf	___flge@ff1+2,w
  1718  0AE1  1C03               	skipc
  1719  0AE2  0F22               	incfsz	___flge@ff1+2,w
  1720  0AE3  2AE5               	goto	u4983
  1721  0AE4  2AE6               	goto	u4984
  1722  0AE5                     u4983:	
  1723  0AE5  02AA               	subwf	??___flge+2,f
  1724  0AE6                     u4984:	
  1725  0AE6  0823               	movf	___flge@ff1+3,w
  1726  0AE7  1C03               	skipc
  1727  0AE8  0F23               	incfsz	___flge@ff1+3,w
  1728  0AE9  2AEB               	goto	u4985
  1729  0AEA  2AEC               	goto	u4986
  1730  0AEB                     u4985:	
  1731  0AEB  02AB               	subwf	??___flge+3,f
  1732  0AEC                     u4986:	
  1733  0AEC  082B               	movf	??___flge+3,w
  1734  0AED  00A3               	movwf	___flge@ff1+3
  1735  0AEE  082A               	movf	??___flge+2,w
  1736  0AEF  00A2               	movwf	___flge@ff1+2
  1737  0AF0  0829               	movf	??___flge+1,w
  1738  0AF1  00A1               	movwf	___flge@ff1+1
  1739  0AF2  0828               	movf	??___flge,w
  1740  0AF3  00A0               	movwf	___flge@ff1
  1741  0AF4                     l3202:	
  1742  0AF4  1FA7               	btfss	___flge@ff2+3,7
  1743  0AF5  2AF7               	goto	u4991
  1744  0AF6  2AF8               	goto	u4990
  1745  0AF7                     u4991:	
  1746  0AF7  2B1C               	goto	l457
  1747  0AF8                     u4990:	
  1748  0AF8                     l3204:	
  1749  0AF8  3000               	movlw	0
  1750  0AF9  00A8               	movwf	??___flge
  1751  0AFA  3000               	movlw	0
  1752  0AFB  00A9               	movwf	??___flge+1
  1753  0AFC  3000               	movlw	0
  1754  0AFD  00AA               	movwf	??___flge+2
  1755  0AFE  3080               	movlw	128
  1756  0AFF  00AB               	movwf	??___flge+3
  1757  0B00  0824               	movf	___flge@ff2,w
  1758  0B01  02A8               	subwf	??___flge,f
  1759  0B02  0825               	movf	___flge@ff2+1,w
  1760  0B03  1C03               	skipc
  1761  0B04  0F25               	incfsz	___flge@ff2+1,w
  1762  0B05  2B07               	goto	u5001
  1763  0B06  2B08               	goto	u5002
  1764  0B07                     u5001:	
  1765  0B07  02A9               	subwf	??___flge+1,f
  1766  0B08                     u5002:	
  1767  0B08  0826               	movf	___flge@ff2+2,w
  1768  0B09  1C03               	skipc
  1769  0B0A  0F26               	incfsz	___flge@ff2+2,w
  1770  0B0B  2B0D               	goto	u5003
  1771  0B0C  2B0E               	goto	u5004
  1772  0B0D                     u5003:	
  1773  0B0D  02AA               	subwf	??___flge+2,f
  1774  0B0E                     u5004:	
  1775  0B0E  0827               	movf	___flge@ff2+3,w
  1776  0B0F  1C03               	skipc
  1777  0B10  0F27               	incfsz	___flge@ff2+3,w
  1778  0B11  2B13               	goto	u5005
  1779  0B12  2B14               	goto	u5006
  1780  0B13                     u5005:	
  1781  0B13  02AB               	subwf	??___flge+3,f
  1782  0B14                     u5006:	
  1783  0B14  082B               	movf	??___flge+3,w
  1784  0B15  00A7               	movwf	___flge@ff2+3
  1785  0B16  082A               	movf	??___flge+2,w
  1786  0B17  00A6               	movwf	___flge@ff2+2
  1787  0B18  0829               	movf	??___flge+1,w
  1788  0B19  00A5               	movwf	___flge@ff2+1
  1789  0B1A  0828               	movf	??___flge,w
  1790  0B1B  00A4               	movwf	___flge@ff2
  1791  0B1C                     l457:	
  1792  0B1C  3080               	movlw	128
  1793  0B1D  06A3               	xorwf	___flge@ff1+3,f
  1794  0B1E  3080               	movlw	128
  1795  0B1F  06A7               	xorwf	___flge@ff2+3,f
  1796  0B20  0827               	movf	___flge@ff2+3,w
  1797  0B21  0223               	subwf	___flge@ff1+3,w
  1798  0B22  1D03               	skipz
  1799  0B23  2B2E               	goto	u5015
  1800  0B24  0826               	movf	___flge@ff2+2,w
  1801  0B25  0222               	subwf	___flge@ff1+2,w
  1802  0B26  1D03               	skipz
  1803  0B27  2B2E               	goto	u5015
  1804  0B28  0825               	movf	___flge@ff2+1,w
  1805  0B29  0221               	subwf	___flge@ff1+1,w
  1806  0B2A  1D03               	skipz
  1807  0B2B  2B2E               	goto	u5015
  1808  0B2C  0824               	movf	___flge@ff2,w
  1809  0B2D  0220               	subwf	___flge@ff1,w
  1810  0B2E                     u5015:	
  1811  0B2E  1803               	skipnc
  1812  0B2F  2B31               	goto	u5011
  1813  0B30  2B32               	goto	u5010
  1814  0B31                     u5011:	
  1815  0B31  2B34               	goto	l3208
  1816  0B32                     u5010:	
  1817  0B32                     l3206:	
  1818  0B32  1003               	clrc
  1819  0B33  2B35               	goto	l458
  1820  0B34                     l3208:	
  1821  0B34  1403               	setc
  1822  0B35                     l458:	
  1823  0B35  0008               	return
  1824  0B36                     __end_of___flge:	
  1825                           
  1826                           	psect	text2
  1827  061A                     __ptext2:	
  1828 ;; *************** function ___fldiv *****************
  1829 ;; Defined at:
  1830 ;;		line 8 in file "D:\Xc8\pic\sources\c90\common\sprcdiv.c"
  1831 ;; Parameters:    Size  Location     Type
  1832 ;;  a               4   40[BANK0 ] void 
  1833 ;;  b               4   44[BANK0 ] void 
  1834 ;; Auto vars:     Size  Location     Type
  1835 ;;  grs             4   60[BANK0 ] unsigned long 
  1836 ;;  rem             4   53[BANK0 ] unsigned long 
  1837 ;;  new_exp         2   58[BANK0 ] int 
  1838 ;;  aexp            1   65[BANK0 ] unsigned char 
  1839 ;;  bexp            1   64[BANK0 ] unsigned char 
  1840 ;;  sign            1   57[BANK0 ] unsigned char 
  1841 ;; Return value:  Size  Location     Type
  1842 ;;                  4   40[BANK0 ] unsigned char 
  1843 ;; Registers used:
  1844 ;;		wreg, status,2, status,0, btemp+1
  1845 ;; Tracked objects:
  1846 ;;		On entry : 0/0
  1847 ;;		On exit  : 0/0
  1848 ;;		Unchanged: 0/0
  1849 ;; Data sizes:     COMMON   BANK0   BANK1   BANK3   BANK2
  1850 ;;      Params:         0       8       0       0       0
  1851 ;;      Locals:         0      13       0       0       0
  1852 ;;      Temps:          0       5       0       0       0
  1853 ;;      Totals:         0      26       0       0       0
  1854 ;;Total ram usage:       26 bytes
  1855 ;; Hardware stack levels used:    1
  1856 ;; Hardware stack levels required when called:    2
  1857 ;; This function calls:
  1858 ;;		Nothing
  1859 ;; This function is called by:
  1860 ;;		_main
  1861 ;; This function uses a non-reentrant model
  1862 ;;
  1863                           
  1864                           
  1865                           ;psect for function ___fldiv
  1866  061A                     ___fldiv:	
  1867  061A                     l2398:	
  1868                           ;incstack = 0
  1869                           ; Regs used in ___fldiv: [wreg+status,2+status,0+btemp+1]
  1870                           
  1871  061A  1283               	bcf	3,5	;RP0=0, select bank0
  1872  061B  1303               	bcf	3,6	;RP1=0, select bank0
  1873  061C  084F               	movf	___fldiv@b+3,w
  1874  061D  3980               	andlw	128
  1875  061E  00D0               	movwf	??___fldiv
  1876  061F  0850               	movf	??___fldiv,w
  1877  0620  00D9               	movwf	___fldiv@sign
  1878  0621                     l2400:	
  1879  0621  084F               	movf	___fldiv@b+3,w
  1880  0622  00D0               	movwf	??___fldiv
  1881  0623  0750               	addwf	??___fldiv,w
  1882  0624  00D1               	movwf	??___fldiv+1
  1883  0625  0851               	movf	??___fldiv+1,w
  1884  0626  00E0               	movwf	___fldiv@bexp
  1885  0627                     l2402:	
  1886  0627  1FCE               	btfss	___fldiv@b+2,7
  1887  0628  2E2A               	goto	u3261
  1888  0629  2E2B               	goto	u3260
  1889  062A                     u3261:	
  1890  062A  2E2C               	goto	l2406
  1891  062B                     u3260:	
  1892  062B                     l2404:	
  1893  062B  1460               	bsf	___fldiv@bexp,0
  1894  062C                     l2406:	
  1895  062C  0860               	movf	___fldiv@bexp,w
  1896  062D  1903               	btfsc	3,2
  1897  062E  2E30               	goto	u3271
  1898  062F  2E31               	goto	u3270
  1899  0630                     u3271:	
  1900  0630  2E41               	goto	l2416
  1901  0631                     u3270:	
  1902  0631                     l2408:	
  1903  0631  0A60               	incf	___fldiv@bexp,w
  1904  0632  1D03               	btfss	3,2
  1905  0633  2E35               	goto	u3281
  1906  0634  2E36               	goto	u3280
  1907  0635                     u3281:	
  1908  0635  2E3E               	goto	l2412
  1909  0636                     u3280:	
  1910  0636                     l2410:	
  1911  0636  3000               	movlw	0
  1912  0637  00CF               	movwf	___fldiv@b+3
  1913  0638  3000               	movlw	0
  1914  0639  00CE               	movwf	___fldiv@b+2
  1915  063A  3000               	movlw	0
  1916  063B  00CD               	movwf	___fldiv@b+1
  1917  063C  3000               	movlw	0
  1918  063D  00CC               	movwf	___fldiv@b
  1919  063E                     l2412:	
  1920  063E  17CE               	bsf	___fldiv@b+2,7
  1921  063F                     l2414:	
  1922  063F  01CF               	clrf	___fldiv@b+3
  1923  0640  2E49               	goto	l2418
  1924  0641                     l2416:	
  1925  0641  3000               	movlw	0
  1926  0642  00CF               	movwf	___fldiv@b+3
  1927  0643  3000               	movlw	0
  1928  0644  00CE               	movwf	___fldiv@b+2
  1929  0645  3000               	movlw	0
  1930  0646  00CD               	movwf	___fldiv@b+1
  1931  0647  3000               	movlw	0
  1932  0648  00CC               	movwf	___fldiv@b
  1933  0649                     l2418:	
  1934  0649  084B               	movf	___fldiv@a+3,w
  1935  064A  3980               	andlw	128
  1936  064B  00D0               	movwf	??___fldiv
  1937  064C  0850               	movf	??___fldiv,w
  1938  064D  06D9               	xorwf	___fldiv@sign,f
  1939  064E                     l2420:	
  1940  064E  084B               	movf	___fldiv@a+3,w
  1941  064F  00D0               	movwf	??___fldiv
  1942  0650  0750               	addwf	??___fldiv,w
  1943  0651  00D1               	movwf	??___fldiv+1
  1944  0652  0851               	movf	??___fldiv+1,w
  1945  0653  00E1               	movwf	___fldiv@aexp
  1946  0654                     l2422:	
  1947  0654  1FCA               	btfss	___fldiv@a+2,7
  1948  0655  2E57               	goto	u3291
  1949  0656  2E58               	goto	u3290
  1950  0657                     u3291:	
  1951  0657  2E59               	goto	l2426
  1952  0658                     u3290:	
  1953  0658                     l2424:	
  1954  0658  1461               	bsf	___fldiv@aexp,0
  1955  0659                     l2426:	
  1956  0659  0861               	movf	___fldiv@aexp,w
  1957  065A  1903               	btfsc	3,2
  1958  065B  2E5D               	goto	u3301
  1959  065C  2E5E               	goto	u3300
  1960  065D                     u3301:	
  1961  065D  2E6E               	goto	l2436
  1962  065E                     u3300:	
  1963  065E                     l2428:	
  1964  065E  0A61               	incf	___fldiv@aexp,w
  1965  065F  1D03               	btfss	3,2
  1966  0660  2E62               	goto	u3311
  1967  0661  2E63               	goto	u3310
  1968  0662                     u3311:	
  1969  0662  2E6B               	goto	l2432
  1970  0663                     u3310:	
  1971  0663                     l2430:	
  1972  0663  3000               	movlw	0
  1973  0664  00CB               	movwf	___fldiv@a+3
  1974  0665  3000               	movlw	0
  1975  0666  00CA               	movwf	___fldiv@a+2
  1976  0667  3000               	movlw	0
  1977  0668  00C9               	movwf	___fldiv@a+1
  1978  0669  3000               	movlw	0
  1979  066A  00C8               	movwf	___fldiv@a
  1980  066B                     l2432:	
  1981  066B  17CA               	bsf	___fldiv@a+2,7
  1982  066C                     l2434:	
  1983  066C  01CB               	clrf	___fldiv@a+3
  1984  066D  2E76               	goto	l629
  1985  066E                     l2436:	
  1986  066E  3000               	movlw	0
  1987  066F  00CB               	movwf	___fldiv@a+3
  1988  0670  3000               	movlw	0
  1989  0671  00CA               	movwf	___fldiv@a+2
  1990  0672  3000               	movlw	0
  1991  0673  00C9               	movwf	___fldiv@a+1
  1992  0674  3000               	movlw	0
  1993  0675  00C8               	movwf	___fldiv@a
  1994  0676                     l629:	
  1995  0676  084B               	movf	___fldiv@a+3,w
  1996  0677  044A               	iorwf	___fldiv@a+2,w
  1997  0678  0449               	iorwf	___fldiv@a+1,w
  1998  0679  0448               	iorwf	___fldiv@a,w
  1999  067A  1D03               	skipz
  2000  067B  2E7D               	goto	u3321
  2001  067C  2E7E               	goto	u3320
  2002  067D                     u3321:	
  2003  067D  2E97               	goto	l2446
  2004  067E                     u3320:	
  2005  067E                     l2438:	
  2006  067E  3000               	movlw	0
  2007  067F  00CF               	movwf	___fldiv@b+3
  2008  0680  3000               	movlw	0
  2009  0681  00CE               	movwf	___fldiv@b+2
  2010  0682  3000               	movlw	0
  2011  0683  00CD               	movwf	___fldiv@b+1
  2012  0684  3000               	movlw	0
  2013  0685  00CC               	movwf	___fldiv@b
  2014  0686  3080               	movlw	128
  2015  0687  04CE               	iorwf	___fldiv@b+2,f
  2016  0688  307F               	movlw	127
  2017  0689  04CF               	iorwf	___fldiv@b+3,f
  2018  068A                     l2440:	
  2019  068A  0859               	movf	___fldiv@sign,w
  2020  068B  00D0               	movwf	??___fldiv
  2021  068C  0850               	movf	??___fldiv,w
  2022  068D  04CF               	iorwf	___fldiv@b+3,f
  2023  068E                     l2442:	
  2024  068E  084F               	movf	___fldiv@b+3,w
  2025  068F  00CB               	movwf	?___fldiv+3
  2026  0690  084E               	movf	___fldiv@b+2,w
  2027  0691  00CA               	movwf	?___fldiv+2
  2028  0692  084D               	movf	___fldiv@b+1,w
  2029  0693  00C9               	movwf	?___fldiv+1
  2030  0694  084C               	movf	___fldiv@b,w
  2031  0695  00C8               	movwf	?___fldiv
  2032  0696  2FF6               	goto	l631
  2033  0697                     l2446:	
  2034  0697  0860               	movf	___fldiv@bexp,w
  2035  0698  1D03               	btfss	3,2
  2036  0699  2E9B               	goto	u3331
  2037  069A  2E9C               	goto	u3330
  2038  069B                     u3331:	
  2039  069B  2EA5               	goto	l2452
  2040  069C                     u3330:	
  2041  069C                     l2448:	
  2042  069C  3000               	movlw	0
  2043  069D  00CB               	movwf	?___fldiv+3
  2044  069E  3000               	movlw	0
  2045  069F  00CA               	movwf	?___fldiv+2
  2046  06A0  3000               	movlw	0
  2047  06A1  00C9               	movwf	?___fldiv+1
  2048  06A2  3000               	movlw	0
  2049  06A3  00C8               	movwf	?___fldiv
  2050  06A4  2FF6               	goto	l631
  2051  06A5                     l2452:	
  2052  06A5  0860               	movf	___fldiv@bexp,w
  2053  06A6  00D0               	movwf	??___fldiv
  2054  06A7  01D1               	clrf	??___fldiv+1
  2055  06A8  0851               	movf	??___fldiv+1,w
  2056  06A9  00D3               	movwf	??___fldiv+3
  2057  06AA  0861               	movf	___fldiv@aexp,w
  2058  06AB  0250               	subwf	??___fldiv,w
  2059  06AC  00D2               	movwf	??___fldiv+2
  2060  06AD  1C03               	skipc
  2061  06AE  03D3               	decf	??___fldiv+3,f
  2062  06AF  0852               	movf	??___fldiv+2,w
  2063  06B0  3E7F               	addlw	127
  2064  06B1  00DA               	movwf	___fldiv@new_exp
  2065  06B2  0853               	movf	??___fldiv+3,w
  2066  06B3  1803               	skipnc
  2067  06B4  3E01               	addlw	1
  2068  06B5  3E00               	addlw	0
  2069  06B6  00DB               	movwf	___fldiv@new_exp+1
  2070  06B7                     l2454:	
  2071  06B7  084F               	movf	___fldiv@b+3,w
  2072  06B8  00D8               	movwf	___fldiv@rem+3
  2073  06B9  084E               	movf	___fldiv@b+2,w
  2074  06BA  00D7               	movwf	___fldiv@rem+2
  2075  06BB  084D               	movf	___fldiv@b+1,w
  2076  06BC  00D6               	movwf	___fldiv@rem+1
  2077  06BD  084C               	movf	___fldiv@b,w
  2078  06BE  00D5               	movwf	___fldiv@rem
  2079  06BF                     l2456:	
  2080  06BF  3000               	movlw	0
  2081  06C0  00CF               	movwf	___fldiv@b+3
  2082  06C1  3000               	movlw	0
  2083  06C2  00CE               	movwf	___fldiv@b+2
  2084  06C3  3000               	movlw	0
  2085  06C4  00CD               	movwf	___fldiv@b+1
  2086  06C5  3000               	movlw	0
  2087  06C6  00CC               	movwf	___fldiv@b
  2088  06C7                     l2458:	
  2089  06C7  3000               	movlw	0
  2090  06C8  00DF               	movwf	___fldiv@grs+3
  2091  06C9  3000               	movlw	0
  2092  06CA  00DE               	movwf	___fldiv@grs+2
  2093  06CB  3000               	movlw	0
  2094  06CC  00DD               	movwf	___fldiv@grs+1
  2095  06CD  3000               	movlw	0
  2096  06CE  00DC               	movwf	___fldiv@grs
  2097  06CF                     l2460:	
  2098  06CF  01E1               	clrf	___fldiv@aexp
  2099  06D0  2F1B               	goto	l2480
  2100  06D1                     l2462:	
  2101  06D1  0861               	movf	___fldiv@aexp,w
  2102  06D2  1903               	btfsc	3,2
  2103  06D3  2ED5               	goto	u3341
  2104  06D4  2ED6               	goto	u3340
  2105  06D5                     u3341:	
  2106  06D5  2EF6               	goto	l2472
  2107  06D6                     u3340:	
  2108  06D6                     l2464:	
  2109  06D6  3001               	movlw	1
  2110  06D7  00D0               	movwf	??___fldiv
  2111  06D8                     u3355:	
  2112  06D8  1003               	clrc
  2113  06D9  0DD5               	rlf	___fldiv@rem,f
  2114  06DA  0DD6               	rlf	___fldiv@rem+1,f
  2115  06DB  0DD7               	rlf	___fldiv@rem+2,f
  2116  06DC  0DD8               	rlf	___fldiv@rem+3,f
  2117  06DD  0BD0               	decfsz	??___fldiv,f
  2118  06DE  2ED8               	goto	u3355
  2119  06DF  3001               	movlw	1
  2120  06E0  00D0               	movwf	??___fldiv
  2121  06E1                     u3365:	
  2122  06E1  1003               	clrc
  2123  06E2  0DCC               	rlf	___fldiv@b,f
  2124  06E3  0DCD               	rlf	___fldiv@b+1,f
  2125  06E4  0DCE               	rlf	___fldiv@b+2,f
  2126  06E5  0DCF               	rlf	___fldiv@b+3,f
  2127  06E6  0BD0               	decfsz	??___fldiv,f
  2128  06E7  2EE1               	goto	u3365
  2129  06E8                     l2466:	
  2130  06E8  1FDF               	btfss	___fldiv@grs+3,7
  2131  06E9  2EEB               	goto	u3371
  2132  06EA  2EEC               	goto	u3370
  2133  06EB                     u3371:	
  2134  06EB  2EED               	goto	l2470
  2135  06EC                     u3370:	
  2136  06EC                     l2468:	
  2137  06EC  144C               	bsf	___fldiv@b,0
  2138  06ED                     l2470:	
  2139  06ED  3001               	movlw	1
  2140  06EE  00D0               	movwf	??___fldiv
  2141  06EF                     u3385:	
  2142  06EF  1003               	clrc
  2143  06F0  0DDC               	rlf	___fldiv@grs,f
  2144  06F1  0DDD               	rlf	___fldiv@grs+1,f
  2145  06F2  0DDE               	rlf	___fldiv@grs+2,f
  2146  06F3  0DDF               	rlf	___fldiv@grs+3,f
  2147  06F4  0BD0               	decfsz	??___fldiv,f
  2148  06F5  2EEF               	goto	u3385
  2149  06F6                     l2472:	
  2150  06F6  084B               	movf	___fldiv@a+3,w
  2151  06F7  0258               	subwf	___fldiv@rem+3,w
  2152  06F8  1D03               	skipz
  2153  06F9  2F04               	goto	u3395
  2154  06FA  084A               	movf	___fldiv@a+2,w
  2155  06FB  0257               	subwf	___fldiv@rem+2,w
  2156  06FC  1D03               	skipz
  2157  06FD  2F04               	goto	u3395
  2158  06FE  0849               	movf	___fldiv@a+1,w
  2159  06FF  0256               	subwf	___fldiv@rem+1,w
  2160  0700  1D03               	skipz
  2161  0701  2F04               	goto	u3395
  2162  0702  0848               	movf	___fldiv@a,w
  2163  0703  0255               	subwf	___fldiv@rem,w
  2164  0704                     u3395:	
  2165  0704  1C03               	skipc
  2166  0705  2F07               	goto	u3391
  2167  0706  2F08               	goto	u3390
  2168  0707                     u3391:	
  2169  0707  2F17               	goto	l2478
  2170  0708                     u3390:	
  2171  0708                     l2474:	
  2172  0708  175F               	bsf	___fldiv@grs+3,6
  2173  0709                     l2476:	
  2174  0709  0848               	movf	___fldiv@a,w
  2175  070A  02D5               	subwf	___fldiv@rem,f
  2176  070B  0849               	movf	___fldiv@a+1,w
  2177  070C  1C03               	skipc
  2178  070D  0F49               	incfsz	___fldiv@a+1,w
  2179  070E  02D6               	subwf	___fldiv@rem+1,f
  2180  070F  084A               	movf	___fldiv@a+2,w
  2181  0710  1C03               	skipc
  2182  0711  0F4A               	incfsz	___fldiv@a+2,w
  2183  0712  02D7               	subwf	___fldiv@rem+2,f
  2184  0713  084B               	movf	___fldiv@a+3,w
  2185  0714  1C03               	skipc
  2186  0715  0F4B               	incfsz	___fldiv@a+3,w
  2187  0716  02D8               	subwf	___fldiv@rem+3,f
  2188  0717                     l2478:	
  2189  0717  3001               	movlw	1
  2190  0718  00D0               	movwf	??___fldiv
  2191  0719  0850               	movf	??___fldiv,w
  2192  071A  07E1               	addwf	___fldiv@aexp,f
  2193  071B                     l2480:	
  2194  071B  301A               	movlw	26
  2195  071C  0261               	subwf	___fldiv@aexp,w
  2196  071D  1C03               	skipc
  2197  071E  2F20               	goto	u3401
  2198  071F  2F21               	goto	u3400
  2199  0720                     u3401:	
  2200  0720  2ED1               	goto	l2462
  2201  0721                     u3400:	
  2202  0721                     l2482:	
  2203  0721  0858               	movf	___fldiv@rem+3,w
  2204  0722  0457               	iorwf	___fldiv@rem+2,w
  2205  0723  0456               	iorwf	___fldiv@rem+1,w
  2206  0724  0455               	iorwf	___fldiv@rem,w
  2207  0725  1903               	skipnz
  2208  0726  2F28               	goto	u3411
  2209  0727  2F29               	goto	u3410
  2210  0728                     u3411:	
  2211  0728  2F48               	goto	l2496
  2212  0729                     u3410:	
  2213  0729                     l2484:	
  2214  0729  145C               	bsf	___fldiv@grs,0
  2215  072A  2F48               	goto	l2496
  2216  072B                     l2486:	
  2217  072B  3001               	movlw	1
  2218  072C  00D0               	movwf	??___fldiv
  2219  072D                     u3425:	
  2220  072D  1003               	clrc
  2221  072E  0DCC               	rlf	___fldiv@b,f
  2222  072F  0DCD               	rlf	___fldiv@b+1,f
  2223  0730  0DCE               	rlf	___fldiv@b+2,f
  2224  0731  0DCF               	rlf	___fldiv@b+3,f
  2225  0732  0BD0               	decfsz	??___fldiv,f
  2226  0733  2F2D               	goto	u3425
  2227  0734                     l2488:	
  2228  0734  1FDF               	btfss	___fldiv@grs+3,7
  2229  0735  2F37               	goto	u3431
  2230  0736  2F38               	goto	u3430
  2231  0737                     u3431:	
  2232  0737  2F39               	goto	l2492
  2233  0738                     u3430:	
  2234  0738                     l2490:	
  2235  0738  144C               	bsf	___fldiv@b,0
  2236  0739                     l2492:	
  2237  0739  3001               	movlw	1
  2238  073A  00D0               	movwf	??___fldiv
  2239  073B                     u3445:	
  2240  073B  1003               	clrc
  2241  073C  0DDC               	rlf	___fldiv@grs,f
  2242  073D  0DDD               	rlf	___fldiv@grs+1,f
  2243  073E  0DDE               	rlf	___fldiv@grs+2,f
  2244  073F  0DDF               	rlf	___fldiv@grs+3,f
  2245  0740  0BD0               	decfsz	??___fldiv,f
  2246  0741  2F3B               	goto	u3445
  2247  0742                     l2494:	
  2248  0742  30FF               	movlw	255
  2249  0743  07DA               	addwf	___fldiv@new_exp,f
  2250  0744  1803               	skipnc
  2251  0745  0ADB               	incf	___fldiv@new_exp+1,f
  2252  0746  30FF               	movlw	255
  2253  0747  07DB               	addwf	___fldiv@new_exp+1,f
  2254  0748                     l2496:	
  2255  0748  1FCE               	btfss	___fldiv@b+2,7
  2256  0749  2F4B               	goto	u3451
  2257  074A  2F4C               	goto	u3450
  2258  074B                     u3451:	
  2259  074B  2F2B               	goto	l2486
  2260  074C                     u3450:	
  2261  074C                     l2498:	
  2262  074C  01E1               	clrf	___fldiv@aexp
  2263  074D                     l2500:	
  2264  074D  1FDF               	btfss	___fldiv@grs+3,7
  2265  074E  2F50               	goto	u3461
  2266  074F  2F51               	goto	u3460
  2267  0750                     u3461:	
  2268  0750  2F6D               	goto	l2508
  2269  0751                     u3460:	
  2270  0751                     l2502:	
  2271  0751  30FF               	movlw	255
  2272  0752  055C               	andwf	___fldiv@grs,w
  2273  0753  00D0               	movwf	??___fldiv
  2274  0754  30FF               	movlw	255
  2275  0755  055D               	andwf	___fldiv@grs+1,w
  2276  0756  00D1               	movwf	??___fldiv+1
  2277  0757  30FF               	movlw	255
  2278  0758  055E               	andwf	___fldiv@grs+2,w
  2279  0759  00D2               	movwf	??___fldiv+2
  2280  075A  307F               	movlw	127
  2281  075B  055F               	andwf	___fldiv@grs+3,w
  2282  075C  00D3               	movwf	??___fldiv+3
  2283  075D  0853               	movf	??___fldiv+3,w
  2284  075E  0452               	iorwf	??___fldiv+2,w
  2285  075F  0451               	iorwf	??___fldiv+1,w
  2286  0760  0450               	iorwf	??___fldiv,w
  2287  0761  1903               	skipnz
  2288  0762  2F64               	goto	u3471
  2289  0763  2F65               	goto	u3470
  2290  0764                     u3471:	
  2291  0764  2F68               	goto	l645
  2292  0765                     u3470:	
  2293  0765                     l2504:	
  2294  0765  01E1               	clrf	___fldiv@aexp
  2295  0766  0AE1               	incf	___fldiv@aexp,f
  2296  0767  2F6D               	goto	l2508
  2297  0768                     l645:	
  2298  0768  1C4C               	btfss	___fldiv@b,0
  2299  0769  2F6B               	goto	u3481
  2300  076A  2F6C               	goto	u3480
  2301  076B                     u3481:	
  2302  076B  2F6D               	goto	l2508
  2303  076C                     u3480:	
  2304  076C  2F65               	goto	l2504
  2305  076D                     l2508:	
  2306  076D  0861               	movf	___fldiv@aexp,w
  2307  076E  1903               	btfsc	3,2
  2308  076F  2F71               	goto	u3491
  2309  0770  2F72               	goto	u3490
  2310  0771                     u3491:	
  2311  0771  2FA3               	goto	l2518
  2312  0772                     u3490:	
  2313  0772                     l2510:	
  2314  0772  3001               	movlw	1
  2315  0773  07CC               	addwf	___fldiv@b,f
  2316  0774  3000               	movlw	0
  2317  0775  1803               	skipnc
  2318  0776  3001               	movlw	1
  2319  0777  07CD               	addwf	___fldiv@b+1,f
  2320  0778  3000               	movlw	0
  2321  0779  1803               	skipnc
  2322  077A  3001               	movlw	1
  2323  077B  07CE               	addwf	___fldiv@b+2,f
  2324  077C  3000               	movlw	0
  2325  077D  1803               	skipnc
  2326  077E  3001               	movlw	1
  2327  077F  07CF               	addwf	___fldiv@b+3,f
  2328  0780                     l2512:	
  2329  0780  1C4F               	btfss	___fldiv@b+3,0
  2330  0781  2F83               	goto	u3501
  2331  0782  2F84               	goto	u3500
  2332  0783                     u3501:	
  2333  0783  2FA3               	goto	l2518
  2334  0784                     u3500:	
  2335  0784                     l2514:	
  2336  0784  084C               	movf	___fldiv@b,w
  2337  0785  00D0               	movwf	??___fldiv
  2338  0786  084D               	movf	___fldiv@b+1,w
  2339  0787  00D1               	movwf	??___fldiv+1
  2340  0788  084E               	movf	___fldiv@b+2,w
  2341  0789  00D2               	movwf	??___fldiv+2
  2342  078A  084F               	movf	___fldiv@b+3,w
  2343  078B  00D3               	movwf	??___fldiv+3
  2344  078C  3001               	movlw	1
  2345  078D  00D4               	movwf	??___fldiv+4
  2346  078E                     u3515:	
  2347  078E  0D53               	rlf	??___fldiv+3,w
  2348  078F  0CD3               	rrf	??___fldiv+3,f
  2349  0790  0CD2               	rrf	??___fldiv+2,f
  2350  0791  0CD1               	rrf	??___fldiv+1,f
  2351  0792  0CD0               	rrf	??___fldiv,f
  2352  0793                     u3510:	
  2353  0793  0BD4               	decfsz	??___fldiv+4,f
  2354  0794  2F8E               	goto	u3515
  2355  0795  0853               	movf	??___fldiv+3,w
  2356  0796  00CF               	movwf	___fldiv@b+3
  2357  0797  0852               	movf	??___fldiv+2,w
  2358  0798  00CE               	movwf	___fldiv@b+2
  2359  0799  0851               	movf	??___fldiv+1,w
  2360  079A  00CD               	movwf	___fldiv@b+1
  2361  079B  0850               	movf	??___fldiv,w
  2362  079C  00CC               	movwf	___fldiv@b
  2363  079D                     l2516:	
  2364  079D  3001               	movlw	1
  2365  079E  07DA               	addwf	___fldiv@new_exp,f
  2366  079F  1803               	skipnc
  2367  07A0  0ADB               	incf	___fldiv@new_exp+1,f
  2368  07A1  3000               	movlw	0
  2369  07A2  07DB               	addwf	___fldiv@new_exp+1,f
  2370  07A3                     l2518:	
  2371  07A3  085B               	movf	___fldiv@new_exp+1,w
  2372  07A4  3A80               	xorlw	128
  2373  07A5  00FF               	movwf	btemp+1
  2374  07A6  3080               	movlw	128
  2375  07A7  027F               	subwf	btemp+1,w
  2376  07A8  1D03               	skipz
  2377  07A9  2FAC               	goto	u3525
  2378  07AA  30FF               	movlw	255
  2379  07AB  025A               	subwf	___fldiv@new_exp,w
  2380  07AC                     u3525:	
  2381  07AC  1C03               	skipc
  2382  07AD  2FAF               	goto	u3521
  2383  07AE  2FB0               	goto	u3520
  2384  07AF                     u3521:	
  2385  07AF  2FBE               	goto	l2522
  2386  07B0                     u3520:	
  2387  07B0                     l2520:	
  2388  07B0  30FF               	movlw	255
  2389  07B1  1283               	bcf	3,5	;RP0=0, select bank0
  2390  07B2  1303               	bcf	3,6	;RP1=0, select bank0
  2391  07B3  00DA               	movwf	___fldiv@new_exp
  2392  07B4  3000               	movlw	0
  2393  07B5  00DB               	movwf	___fldiv@new_exp+1
  2394  07B6  3000               	movlw	0
  2395  07B7  00CF               	movwf	___fldiv@b+3
  2396  07B8  3000               	movlw	0
  2397  07B9  00CE               	movwf	___fldiv@b+2
  2398  07BA  3000               	movlw	0
  2399  07BB  00CD               	movwf	___fldiv@b+1
  2400  07BC  3000               	movlw	0
  2401  07BD  00CC               	movwf	___fldiv@b
  2402  07BE                     l2522:	
  2403  07BE  1283               	bcf	3,5	;RP0=0, select bank0
  2404  07BF  1303               	bcf	3,6	;RP1=0, select bank0
  2405  07C0  085B               	movf	___fldiv@new_exp+1,w
  2406  07C1  3A80               	xorlw	128
  2407  07C2  00FF               	movwf	btemp+1
  2408  07C3  3080               	movlw	128
  2409  07C4  027F               	subwf	btemp+1,w
  2410  07C5  1D03               	skipz
  2411  07C6  2FC9               	goto	u3535
  2412  07C7  3001               	movlw	1
  2413  07C8  025A               	subwf	___fldiv@new_exp,w
  2414  07C9                     u3535:	
  2415  07C9  1803               	skipnc
  2416  07CA  2FCC               	goto	u3531
  2417  07CB  2FCD               	goto	u3530
  2418  07CC                     u3531:	
  2419  07CC  2FDA               	goto	l651
  2420  07CD                     u3530:	
  2421  07CD                     l2524:	
  2422  07CD  1283               	bcf	3,5	;RP0=0, select bank0
  2423  07CE  1303               	bcf	3,6	;RP1=0, select bank0
  2424  07CF  01DA               	clrf	___fldiv@new_exp
  2425  07D0  01DB               	clrf	___fldiv@new_exp+1
  2426  07D1                     l2526:	
  2427  07D1  3000               	movlw	0
  2428  07D2  00CF               	movwf	___fldiv@b+3
  2429  07D3  3000               	movlw	0
  2430  07D4  00CE               	movwf	___fldiv@b+2
  2431  07D5  3000               	movlw	0
  2432  07D6  00CD               	movwf	___fldiv@b+1
  2433  07D7  3000               	movlw	0
  2434  07D8  00CC               	movwf	___fldiv@b
  2435  07D9                     l2528:	
  2436  07D9  01D9               	clrf	___fldiv@sign
  2437  07DA                     l651:	
  2438  07DA  1283               	bcf	3,5	;RP0=0, select bank0
  2439  07DB  1303               	bcf	3,6	;RP1=0, select bank0
  2440  07DC  085A               	movf	___fldiv@new_exp,w
  2441  07DD  00D0               	movwf	??___fldiv
  2442  07DE  0850               	movf	??___fldiv,w
  2443  07DF  00E0               	movwf	___fldiv@bexp
  2444  07E0                     l2530:	
  2445  07E0  1C60               	btfss	___fldiv@bexp,0
  2446  07E1  2FE3               	goto	u3541
  2447  07E2  2FE4               	goto	u3540
  2448  07E3                     u3541:	
  2449  07E3  2FE6               	goto	l2534
  2450  07E4                     u3540:	
  2451  07E4                     l2532:	
  2452  07E4  17CE               	bsf	___fldiv@b+2,7
  2453  07E5  2FEA               	goto	l653
  2454  07E6                     l2534:	
  2455  07E6  307F               	movlw	127
  2456  07E7  00D0               	movwf	??___fldiv
  2457  07E8  0850               	movf	??___fldiv,w
  2458  07E9  05CE               	andwf	___fldiv@b+2,f
  2459  07EA                     l653:	
  2460  07EA  0860               	movf	___fldiv@bexp,w
  2461  07EB  00D0               	movwf	??___fldiv
  2462  07EC  1003               	clrc
  2463  07ED  0C50               	rrf	??___fldiv,w
  2464  07EE  00D1               	movwf	??___fldiv+1
  2465  07EF  0851               	movf	??___fldiv+1,w
  2466  07F0  00CF               	movwf	___fldiv@b+3
  2467  07F1  0859               	movf	___fldiv@sign,w
  2468  07F2  00D0               	movwf	??___fldiv
  2469  07F3  0850               	movf	??___fldiv,w
  2470  07F4  04CF               	iorwf	___fldiv@b+3,f
  2471  07F5  2E8E               	goto	l2442
  2472  07F6                     l631:	
  2473  07F6  0008               	return
  2474  07F7                     __end_of___fldiv:	
  2475                           
  2476                           	psect	text3
  2477  0839                     __ptext3:	
  2478 ;; *************** function _WriteInt_LCD *****************
  2479 ;; Defined at:
  2480 ;;		line 88 in file "LCD.c"
  2481 ;; Parameters:    Size  Location     Type
  2482 ;;  dato            1    wreg     unsigned char 
  2483 ;; Auto vars:     Size  Location     Type
  2484 ;;  dato            1   28[BANK0 ] unsigned char 
  2485 ;;  output1         3   29[BANK0 ] unsigned char [3]
  2486 ;; Return value:  Size  Location     Type
  2487 ;;                  1    wreg      void 
  2488 ;; Registers used:
  2489 ;;		wreg, fsr0l, fsr0h, status,2, status,0, btemp+1, pclath, cstack
  2490 ;; Tracked objects:
  2491 ;;		On entry : 0/0
  2492 ;;		On exit  : 0/0
  2493 ;;		Unchanged: 0/0
  2494 ;; Data sizes:     COMMON   BANK0   BANK1   BANK3   BANK2
  2495 ;;      Params:         0       0       0       0       0
  2496 ;;      Locals:         0       4       0       0       0
  2497 ;;      Temps:          0       3       0       0       0
  2498 ;;      Totals:         0       7       0       0       0
  2499 ;;Total ram usage:        7 bytes
  2500 ;; Hardware stack levels used:    1
  2501 ;; Hardware stack levels required when called:    4
  2502 ;; This function calls:
  2503 ;;		_LCD_DataWrite
  2504 ;;		_sprintf
  2505 ;; This function is called by:
  2506 ;;		_main
  2507 ;; This function uses a non-reentrant model
  2508 ;;
  2509                           
  2510                           
  2511                           ;psect for function _WriteInt_LCD
  2512  0839                     _WriteInt_LCD:	
  2513                           
  2514                           ;incstack = 0
  2515                           ; Regs used in _WriteInt_LCD: [wreg-fsr0h+status,2+status,0+btemp+1+pclath+cstack]
  2516                           ;WriteInt_LCD@dato stored from wreg
  2517  0839  1283               	bcf	3,5	;RP0=0, select bank0
  2518  083A  1303               	bcf	3,6	;RP1=0, select bank0
  2519  083B  00BC               	movwf	WriteInt_LCD@dato
  2520  083C                     l3174:	
  2521                           
  2522                           ;LCD.c: 90:     char output1[3];;LCD.c: 91:     sprintf (output1,"%d",dato);
  2523  083C  3022               	movlw	(low ((STR_1-__stringbase)| (0+32768)))& (0+255)
  2524  083D  00B9               	movwf	??_WriteInt_LCD
  2525  083E  0839               	movf	??_WriteInt_LCD,w
  2526  083F  00AC               	movwf	sprintf@f
  2527  0840  083C               	movf	WriteInt_LCD@dato,w
  2528  0841  00BA               	movwf	??_WriteInt_LCD+1
  2529  0842  01BB               	clrf	??_WriteInt_LCD+2
  2530  0843  083A               	movf	??_WriteInt_LCD+1,w
  2531  0844  00AD               	movwf	?_sprintf+1
  2532  0845  083B               	movf	??_WriteInt_LCD+2,w
  2533  0846  00AE               	movwf	?_sprintf+2
  2534  0847  303D               	movlw	(low (WriteInt_LCD@output1| 0))& (0+255)
  2535  0848  120A  158A  23F2  120A  158A  	fcall	_sprintf
  2536                           
  2537                           ;LCD.c: 92:     LCD_DataWrite(output1);
  2538  084D  303D               	movlw	(low (WriteInt_LCD@output1| 0))& (0+255)
  2539  084E  1283               	bcf	3,5	;RP0=0, select bank0
  2540  084F  1303               	bcf	3,6	;RP1=0, select bank0
  2541  0850  00A0               	movwf	LCD_DataWrite@dato
  2542  0851  3000               	movlw	0
  2543  0852  00A1               	movwf	LCD_DataWrite@dato+1
  2544  0853  120A  158A  207D  120A  158A  	fcall	_LCD_DataWrite
  2545  0858                     l25:	
  2546  0858  0008               	return
  2547  0859                     __end_of_WriteInt_LCD:	
  2548                           
  2549                           	psect	text4
  2550  0BF2                     __ptext4:	
  2551 ;; *************** function _sprintf *****************
  2552 ;; Defined at:
  2553 ;;		line 505 in file "D:\Xc8\pic\sources\c90\common\doprnt.c"
  2554 ;; Parameters:    Size  Location     Type
  2555 ;;  sp              1    wreg     PTR unsigned char 
  2556 ;;		 -> WriteInt_LCD@output1(3), 
  2557 ;;  f               1   12[BANK0 ] PTR const unsigned char 
  2558 ;;		 -> STR_1(3), 
  2559 ;; Auto vars:     Size  Location     Type
  2560 ;;  sp              1   23[BANK0 ] PTR unsigned char 
  2561 ;;		 -> WriteInt_LCD@output1(3), 
  2562 ;;  tmpval          4    0        struct .
  2563 ;;  val             2   21[BANK0 ] unsigned int 
  2564 ;;  cp              2    0        PTR const unsigned char 
  2565 ;;  len             2    0        unsigned int 
  2566 ;;  c               1   24[BANK0 ] unsigned char 
  2567 ;;  prec            1   20[BANK0 ] char 
  2568 ;;  flag            1   19[BANK0 ] unsigned char 
  2569 ;;  ap              1   18[BANK0 ] PTR void [1]
  2570 ;;		 -> ?_sprintf(2), 
  2571 ;; Return value:  Size  Location     Type
  2572 ;;                  2   12[BANK0 ] int 
  2573 ;; Registers used:
  2574 ;;		wreg, fsr0l, fsr0h, status,2, status,0, btemp+1, pclath, cstack
  2575 ;; Tracked objects:
  2576 ;;		On entry : 0/0
  2577 ;;		On exit  : 0/0
  2578 ;;		Unchanged: 0/0
  2579 ;; Data sizes:     COMMON   BANK0   BANK1   BANK3   BANK2
  2580 ;;      Params:         0       3       0       0       0
  2581 ;;      Locals:         0       7       0       0       0
  2582 ;;      Temps:          0       3       0       0       0
  2583 ;;      Totals:         0      13       0       0       0
  2584 ;;Total ram usage:       13 bytes
  2585 ;; Hardware stack levels used:    1
  2586 ;; Hardware stack levels required when called:    3
  2587 ;; This function calls:
  2588 ;;		___lwdiv
  2589 ;;		___lwmod
  2590 ;; This function is called by:
  2591 ;;		_WriteInt_LCD
  2592 ;; This function uses a non-reentrant model
  2593 ;;
  2594                           
  2595                           
  2596                           ;psect for function _sprintf
  2597  0BF2                     _sprintf:	
  2598                           
  2599                           ;incstack = 0
  2600                           ; Regs used in _sprintf: [wreg-fsr0h+status,2+status,0+btemp+1+pclath+cstack]
  2601                           ;sprintf@sp stored from wreg
  2602  0BF2  1283               	bcf	3,5	;RP0=0, select bank0
  2603  0BF3  1303               	bcf	3,6	;RP1=0, select bank0
  2604  0BF4  00B7               	movwf	sprintf@sp
  2605  0BF5                     l2886:	
  2606                           
  2607                           ;D:\Xc8\pic\sources\c90\common\doprnt.c: 505: sprintf(char * sp, const char * f, ...);D:
      +                          \Xc8\pic\sources\c90\common\doprnt.c: 506: {;D:\Xc8\pic\sources\c90\common\doprnt.c: 507
      +                          :  va_list ap;;D:\Xc8\pic\sources\c90\common\doprnt.c: 512:  char c;;D:\Xc8\pic\sources\
      +                          c90\common\doprnt.c: 521:  signed char prec;;D:\Xc8\pic\sources\c90\common\doprnt.c: 525
      +                          :  unsigned char flag;;D:\Xc8\pic\sources\c90\common\doprnt.c: 543:  } tmpval;;D:\Xc8\pi
      +                          c\sources\c90\common\doprnt.c: 545:  unsigned int val;;D:\Xc8\pic\sources\c90\common\dop
      +                          rnt.c: 546:  unsigned len;
  2608  0BF5  302D               	movlw	(low ((?_sprintf| 0+1)))& (0+255)
  2609  0BF6  00AF               	movwf	??_sprintf
  2610  0BF7  082F               	movf	??_sprintf,w
  2611  0BF8  00B2               	movwf	sprintf@ap
  2612                           
  2613                           ;D:\Xc8\pic\sources\c90\common\doprnt.c: 553:  while((c = *f++)) {
  2614  0BF9  2CC5               	goto	l2938
  2615  0BFA                     l2888:	
  2616                           
  2617                           ;D:\Xc8\pic\sources\c90\common\doprnt.c: 555:   if(c != '%')
  2618  0BFA  3025               	movlw	37
  2619  0BFB  0638               	xorwf	sprintf@c,w
  2620  0BFC  1903               	btfsc	3,2
  2621  0BFD  2BFF               	goto	u4261
  2622  0BFE  2C00               	goto	u4260
  2623  0BFF                     u4261:	
  2624  0BFF  2C0C               	goto	l2894
  2625  0C00                     u4260:	
  2626  0C00                     l2890:	
  2627                           
  2628                           ;D:\Xc8\pic\sources\c90\common\doprnt.c: 557:   {;D:\Xc8\pic\sources\c90\common\doprnt.c
      +                          : 558:    ((*sp++ = (c)));
  2629  0C00  0838               	movf	sprintf@c,w
  2630  0C01  00AF               	movwf	??_sprintf
  2631  0C02  0837               	movf	sprintf@sp,w
  2632  0C03  0084               	movwf	4
  2633  0C04  082F               	movf	??_sprintf,w
  2634  0C05  1383               	bcf	3,7	;select IRP bank0
  2635  0C06  0080               	movwf	0
  2636  0C07                     l2892:	
  2637  0C07  3001               	movlw	1
  2638  0C08  00AF               	movwf	??_sprintf
  2639  0C09  082F               	movf	??_sprintf,w
  2640  0C0A  07B7               	addwf	sprintf@sp,f
  2641                           
  2642                           ;D:\Xc8\pic\sources\c90\common\doprnt.c: 559:    continue;
  2643  0C0B  2CC5               	goto	l2938
  2644  0C0C                     l2894:	
  2645                           
  2646                           ;D:\Xc8\pic\sources\c90\common\doprnt.c: 565:   flag = 0;
  2647  0C0C  01B3               	clrf	sprintf@flag
  2648  0C0D                     l2898:	
  2649                           ;D:\Xc8\pic\sources\c90\common\doprnt.c: 661:   switch(c = *f++) {
  2650                           
  2651  0C0D  3001               	movlw	1
  2652  0C0E  07AC               	addwf	sprintf@f,f
  2653  0C0F  30FF               	movlw	-1
  2654  0C10  072C               	addwf	sprintf@f,w
  2655  0C11  0084               	movwf	4
  2656  0C12  120A  158A  200A  120A  158A  	fcall	stringdir
  2657  0C17  00B8               	movwf	sprintf@c
  2658  0C18  00AF               	movwf	??_sprintf
  2659  0C19  01B0               	clrf	??_sprintf+1
  2660                           
  2661                           ; Switch on 2 bytes has been partitioned into a top level switch of size 1, and 1 sub-sw
      +                          itches
  2662                           ; Switch size 1, requested type "simple"
  2663                           ; Number of cases is 1, Range of values is 0 to 0
  2664                           ; switch strategies available:
  2665                           ; Name         Instructions Cycles
  2666                           ; simple_byte            4     3 (average)
  2667                           ; direct_byte           11     8 (fixed)
  2668                           ; jumptable            260     6 (fixed)
  2669                           ;	Chosen strategy is simple_byte
  2670  0C1A  0830               	movf	??_sprintf+1,w
  2671  0C1B  3A00               	xorlw	0	; case 0
  2672  0C1C  1903               	skipnz
  2673  0C1D  2C1F               	goto	l3258
  2674  0C1E  2CC5               	goto	l2938
  2675  0C1F                     l3258:	
  2676                           
  2677                           ; Switch size 1, requested type "simple"
  2678                           ; Number of cases is 3, Range of values is 0 to 105
  2679                           ; switch strategies available:
  2680                           ; Name         Instructions Cycles
  2681                           ; simple_byte           10     6 (average)
  2682                           ; jumptable            260     6 (fixed)
  2683                           ;	Chosen strategy is simple_byte
  2684  0C1F  082F               	movf	??_sprintf,w
  2685  0C20  3A00               	xorlw	0	; case 0
  2686  0C21  1903               	skipnz
  2687  0C22  2CD7               	goto	l2940
  2688  0C23  3A64               	xorlw	100	; case 100
  2689  0C24  1903               	skipnz
  2690  0C25  2C2A               	goto	l2900
  2691  0C26  3A0D               	xorlw	13	; case 105
  2692  0C27  1903               	skipnz
  2693  0C28  2C2A               	goto	l2900
  2694  0C29  2CC5               	goto	l2938
  2695  0C2A                     l2900:	
  2696                           
  2697                           ;D:\Xc8\pic\sources\c90\common\doprnt.c: 1279:   {;D:\Xc8\pic\sources\c90\common\doprnt.
      +                          c: 1285:     val = (unsigned int)(*(int *)__va_arg((*(int **)ap), (int)0));
  2698  0C2A  0832               	movf	sprintf@ap,w
  2699  0C2B  0084               	movwf	4
  2700  0C2C  1383               	bcf	3,7	;select IRP bank0
  2701  0C2D  0800               	movf	0,w
  2702  0C2E  00B5               	movwf	sprintf@val
  2703  0C2F  0A84               	incf	4,f
  2704  0C30  0800               	movf	0,w
  2705  0C31  00B6               	movwf	sprintf@val+1
  2706  0C32                     l2902:	
  2707  0C32  3002               	movlw	2
  2708  0C33  00AF               	movwf	??_sprintf
  2709  0C34  082F               	movf	??_sprintf,w
  2710  0C35  07B2               	addwf	sprintf@ap,f
  2711  0C36                     l2904:	
  2712                           
  2713                           ;D:\Xc8\pic\sources\c90\common\doprnt.c: 1287:    if((int)val < 0) {
  2714  0C36  1FB6               	btfss	sprintf@val+1,7
  2715  0C37  2C39               	goto	u4271
  2716  0C38  2C3A               	goto	u4270
  2717  0C39                     u4271:	
  2718  0C39  2C43               	goto	l2910
  2719  0C3A                     u4270:	
  2720  0C3A                     l2906:	
  2721                           
  2722                           ;D:\Xc8\pic\sources\c90\common\doprnt.c: 1288:     flag |= 0x03;
  2723  0C3A  3003               	movlw	3
  2724  0C3B  00AF               	movwf	??_sprintf
  2725  0C3C  082F               	movf	??_sprintf,w
  2726  0C3D  04B3               	iorwf	sprintf@flag,f
  2727  0C3E                     l2908:	
  2728                           
  2729                           ;D:\Xc8\pic\sources\c90\common\doprnt.c: 1289:     val = -val;
  2730  0C3E  09B5               	comf	sprintf@val,f
  2731  0C3F  09B6               	comf	sprintf@val+1,f
  2732  0C40  0AB5               	incf	sprintf@val,f
  2733  0C41  1903               	skipnz
  2734  0C42  0AB6               	incf	sprintf@val+1,f
  2735  0C43                     l2910:	
  2736                           
  2737                           ;D:\Xc8\pic\sources\c90\common\doprnt.c: 1292:   };D:\Xc8\pic\sources\c90\common\doprnt.
      +                          c: 1331:    for(c = 1 ; c != sizeof dpowers/sizeof dpowers[0] ; c++)
  2738  0C43  01B8               	clrf	sprintf@c
  2739  0C44  0AB8               	incf	sprintf@c,f
  2740  0C45                     l2916:	
  2741                           
  2742                           ;D:\Xc8\pic\sources\c90\common\doprnt.c: 1332:     if(val < dpowers[c])
  2743  0C45  0838               	movf	sprintf@c,w
  2744  0C46  00AF               	movwf	??_sprintf
  2745  0C47  072F               	addwf	??_sprintf,w
  2746  0C48  3E01               	addlw	low ((_dpowers-__stringbase)| (0+32768))
  2747  0C49  0084               	movwf	4
  2748  0C4A  120A  158A  200A  120A  158A  	fcall	stringdir
  2749  0C4F  00B0               	movwf	??_sprintf+1
  2750  0C50  120A  158A  200A  120A  158A  	fcall	stringdir
  2751  0C55  00B1               	movwf	??_sprintf+2
  2752  0C56  0831               	movf	??_sprintf+2,w
  2753  0C57  0236               	subwf	sprintf@val+1,w
  2754  0C58  1D03               	skipz
  2755  0C59  2C5C               	goto	u4285
  2756  0C5A  0830               	movf	??_sprintf+1,w
  2757  0C5B  0235               	subwf	sprintf@val,w
  2758  0C5C                     u4285:	
  2759  0C5C  1803               	skipnc
  2760  0C5D  2C5F               	goto	u4281
  2761  0C5E  2C60               	goto	u4280
  2762  0C5F                     u4281:	
  2763  0C5F  2C61               	goto	l2920
  2764  0C60                     u4280:	
  2765  0C60  2C6B               	goto	l2922
  2766  0C61                     l2920:	
  2767  0C61  3001               	movlw	1
  2768  0C62  00AF               	movwf	??_sprintf
  2769  0C63  082F               	movf	??_sprintf,w
  2770  0C64  07B8               	addwf	sprintf@c,f
  2771  0C65  3005               	movlw	5
  2772  0C66  0638               	xorwf	sprintf@c,w
  2773  0C67  1D03               	btfss	3,2
  2774  0C68  2C6A               	goto	u4291
  2775  0C69  2C6B               	goto	u4290
  2776  0C6A                     u4291:	
  2777  0C6A  2C45               	goto	l2916
  2778  0C6B                     u4290:	
  2779  0C6B                     l2922:	
  2780                           
  2781                           ;D:\Xc8\pic\sources\c90\common\doprnt.c: 1448:   {;D:\Xc8\pic\sources\c90\common\doprnt.
      +                          c: 1464:    if(flag & 0x03)
  2782  0C6B  0833               	movf	sprintf@flag,w
  2783  0C6C  3903               	andlw	3
  2784  0C6D  1903               	btfsc	3,2
  2785  0C6E  2C70               	goto	u4301
  2786  0C6F  2C71               	goto	u4300
  2787  0C70                     u4301:	
  2788  0C70  2C7C               	goto	l2928
  2789  0C71                     u4300:	
  2790  0C71                     l2924:	
  2791                           
  2792                           ;D:\Xc8\pic\sources\c90\common\doprnt.c: 1465:     ((*sp++ = ('-')));
  2793  0C71  302D               	movlw	45
  2794  0C72  00AF               	movwf	??_sprintf
  2795  0C73  0837               	movf	sprintf@sp,w
  2796  0C74  0084               	movwf	4
  2797  0C75  082F               	movf	??_sprintf,w
  2798  0C76  1383               	bcf	3,7	;select IRP bank0
  2799  0C77  0080               	movwf	0
  2800  0C78                     l2926:	
  2801  0C78  3001               	movlw	1
  2802  0C79  00AF               	movwf	??_sprintf
  2803  0C7A  082F               	movf	??_sprintf,w
  2804  0C7B  07B7               	addwf	sprintf@sp,f
  2805  0C7C                     l2928:	
  2806                           
  2807                           ;D:\Xc8\pic\sources\c90\common\doprnt.c: 1495:   };D:\Xc8\pic\sources\c90\common\doprnt.
      +                          c: 1498:   prec = c;
  2808  0C7C  0838               	movf	sprintf@c,w
  2809  0C7D  00AF               	movwf	??_sprintf
  2810  0C7E  082F               	movf	??_sprintf,w
  2811  0C7F  00B4               	movwf	sprintf@prec
  2812                           
  2813                           ;D:\Xc8\pic\sources\c90\common\doprnt.c: 1500:   while(prec--) {
  2814  0C80  2CBC               	goto	l2936
  2815  0C81                     l2930:	
  2816                           
  2817                           ;D:\Xc8\pic\sources\c90\common\doprnt.c: 1504:    {;D:\Xc8\pic\sources\c90\common\doprnt
      +                          .c: 1515:     c = (val / dpowers[(unsigned char)prec]) % 10 + '0';
  2818  0C81  300A               	movlw	10
  2819  0C82  00A7               	movwf	___lwmod@divisor
  2820  0C83  3000               	movlw	0
  2821  0C84  00A8               	movwf	___lwmod@divisor+1
  2822  0C85  0834               	movf	sprintf@prec,w
  2823  0C86  00AF               	movwf	??_sprintf
  2824  0C87  072F               	addwf	??_sprintf,w
  2825  0C88  3E01               	addlw	low ((_dpowers-__stringbase)| (0+32768))
  2826  0C89  0084               	movwf	4
  2827  0C8A  120A  158A  200A  120A  158A  	fcall	stringdir
  2828  0C8F  00A0               	movwf	___lwdiv@divisor
  2829  0C90  120A  158A  200A  120A  158A  	fcall	stringdir
  2830  0C95  00A1               	movwf	___lwdiv@divisor+1
  2831  0C96  0836               	movf	sprintf@val+1,w
  2832  0C97  00A3               	movwf	___lwdiv@dividend+1
  2833  0C98  0835               	movf	sprintf@val,w
  2834  0C99  00A2               	movwf	___lwdiv@dividend
  2835  0C9A  120A  158A  2178  120A  158A  	fcall	___lwdiv
  2836  0C9F  1283               	bcf	3,5	;RP0=0, select bank0
  2837  0CA0  1303               	bcf	3,6	;RP1=0, select bank0
  2838  0CA1  0821               	movf	?___lwdiv+1,w
  2839  0CA2  00AA               	movwf	___lwmod@dividend+1
  2840  0CA3  0820               	movf	?___lwdiv,w
  2841  0CA4  00A9               	movwf	___lwmod@dividend
  2842  0CA5  120A  158A  213C  120A  158A  	fcall	___lwmod
  2843  0CAA  1283               	bcf	3,5	;RP0=0, select bank0
  2844  0CAB  1303               	bcf	3,6	;RP1=0, select bank0
  2845  0CAC  0827               	movf	?___lwmod,w
  2846  0CAD  3E30               	addlw	48
  2847  0CAE  00B0               	movwf	??_sprintf+1
  2848  0CAF  0830               	movf	??_sprintf+1,w
  2849  0CB0  00B8               	movwf	sprintf@c
  2850  0CB1                     l2932:	
  2851                           
  2852                           ;D:\Xc8\pic\sources\c90\common\doprnt.c: 1549:    };D:\Xc8\pic\sources\c90\common\doprnt
      +                          .c: 1550:    ((*sp++ = (c)));
  2853  0CB1  0838               	movf	sprintf@c,w
  2854  0CB2  00AF               	movwf	??_sprintf
  2855  0CB3  0837               	movf	sprintf@sp,w
  2856  0CB4  0084               	movwf	4
  2857  0CB5  082F               	movf	??_sprintf,w
  2858  0CB6  1383               	bcf	3,7	;select IRP bank0
  2859  0CB7  0080               	movwf	0
  2860  0CB8                     l2934:	
  2861  0CB8  3001               	movlw	1
  2862  0CB9  00AF               	movwf	??_sprintf
  2863  0CBA  082F               	movf	??_sprintf,w
  2864  0CBB  07B7               	addwf	sprintf@sp,f
  2865  0CBC                     l2936:	
  2866                           
  2867                           ;D:\Xc8\pic\sources\c90\common\doprnt.c: 1500:   while(prec--) {
  2868  0CBC  30FF               	movlw	255
  2869  0CBD  00AF               	movwf	??_sprintf
  2870  0CBE  082F               	movf	??_sprintf,w
  2871  0CBF  07B4               	addwf	sprintf@prec,f
  2872  0CC0  0A34               	incf	sprintf@prec,w
  2873  0CC1  1D03               	btfss	3,2
  2874  0CC2  2CC4               	goto	u4311
  2875  0CC3  2CC5               	goto	u4310
  2876  0CC4                     u4311:	
  2877  0CC4  2C81               	goto	l2930
  2878  0CC5                     u4310:	
  2879  0CC5                     l2938:	
  2880                           
  2881                           ;D:\Xc8\pic\sources\c90\common\doprnt.c: 553:  while((c = *f++)) {
  2882  0CC5  3001               	movlw	1
  2883  0CC6  07AC               	addwf	sprintf@f,f
  2884  0CC7  30FF               	movlw	-1
  2885  0CC8  072C               	addwf	sprintf@f,w
  2886  0CC9  0084               	movwf	4
  2887  0CCA  120A  158A  200A  120A  158A  	fcall	stringdir
  2888  0CCF  00AF               	movwf	??_sprintf
  2889  0CD0  082F               	movf	??_sprintf,w
  2890  0CD1  00B8               	movwf	sprintf@c
  2891  0CD2  0838               	movf	sprintf@c,w
  2892  0CD3  1D03               	btfss	3,2
  2893  0CD4  2CD6               	goto	u4321
  2894  0CD5  2CD7               	goto	u4320
  2895  0CD6                     u4321:	
  2896  0CD6  2BFA               	goto	l2888
  2897  0CD7                     u4320:	
  2898  0CD7                     l2940:	
  2899                           
  2900                           ;D:\Xc8\pic\sources\c90\common\doprnt.c: 1564:  *sp = 0;
  2901  0CD7  0837               	movf	sprintf@sp,w
  2902  0CD8  0084               	movwf	4
  2903  0CD9  1383               	bcf	3,7	;select IRP bank0
  2904  0CDA  0180               	clrf	0
  2905  0CDB                     l276:	
  2906  0CDB  0008               	return
  2907  0CDC                     __end_of_sprintf:	
  2908                           
  2909                           	psect	text5
  2910  093C                     __ptext5:	
  2911 ;; *************** function ___lwmod *****************
  2912 ;; Defined at:
  2913 ;;		line 5 in file "D:\Xc8\pic\sources\c90\common\lwmod.c"
  2914 ;; Parameters:    Size  Location     Type
  2915 ;;  divisor         2    7[BANK0 ] unsigned int 
  2916 ;;  dividend        2    9[BANK0 ] unsigned int 
  2917 ;; Auto vars:     Size  Location     Type
  2918 ;;  counter         1   11[BANK0 ] unsigned char 
  2919 ;; Return value:  Size  Location     Type
  2920 ;;                  2    7[BANK0 ] unsigned int 
  2921 ;; Registers used:
  2922 ;;		wreg, status,2, status,0
  2923 ;; Tracked objects:
  2924 ;;		On entry : 0/0
  2925 ;;		On exit  : 0/0
  2926 ;;		Unchanged: 0/0
  2927 ;; Data sizes:     COMMON   BANK0   BANK1   BANK3   BANK2
  2928 ;;      Params:         0       4       0       0       0
  2929 ;;      Locals:         0       1       0       0       0
  2930 ;;      Temps:          1       0       0       0       0
  2931 ;;      Totals:         1       5       0       0       0
  2932 ;;Total ram usage:        6 bytes
  2933 ;; Hardware stack levels used:    1
  2934 ;; Hardware stack levels required when called:    2
  2935 ;; This function calls:
  2936 ;;		Nothing
  2937 ;; This function is called by:
  2938 ;;		_sprintf
  2939 ;; This function uses a non-reentrant model
  2940 ;;
  2941                           
  2942                           
  2943                           ;psect for function ___lwmod
  2944  093C                     ___lwmod:	
  2945  093C                     l2648:	
  2946                           ;incstack = 0
  2947                           ; Regs used in ___lwmod: [wreg+status,2+status,0]
  2948                           
  2949  093C  1283               	bcf	3,5	;RP0=0, select bank0
  2950  093D  1303               	bcf	3,6	;RP1=0, select bank0
  2951  093E  0827               	movf	___lwmod@divisor,w
  2952  093F  0428               	iorwf	___lwmod@divisor+1,w
  2953  0940  1903               	btfsc	3,2
  2954  0941  2943               	goto	u3701
  2955  0942  2944               	goto	u3700
  2956  0943                     u3701:	
  2957  0943  2973               	goto	l2666
  2958  0944                     u3700:	
  2959  0944                     l2650:	
  2960  0944  01AB               	clrf	___lwmod@counter
  2961  0945  0AAB               	incf	___lwmod@counter,f
  2962  0946  2952               	goto	l2656
  2963  0947                     l2652:	
  2964  0947  3001               	movlw	1
  2965  0948                     u3715:	
  2966  0948  1003               	clrc
  2967  0949  0DA7               	rlf	___lwmod@divisor,f
  2968  094A  0DA8               	rlf	___lwmod@divisor+1,f
  2969  094B  3EFF               	addlw	-1
  2970  094C  1D03               	skipz
  2971  094D  2948               	goto	u3715
  2972  094E                     l2654:	
  2973  094E  3001               	movlw	1
  2974  094F  00F6               	movwf	??___lwmod
  2975  0950  0876               	movf	??___lwmod,w
  2976  0951  07AB               	addwf	___lwmod@counter,f
  2977  0952                     l2656:	
  2978  0952  1FA8               	btfss	___lwmod@divisor+1,7
  2979  0953  2955               	goto	u3721
  2980  0954  2956               	goto	u3720
  2981  0955                     u3721:	
  2982  0955  2947               	goto	l2652
  2983  0956                     u3720:	
  2984  0956                     l2658:	
  2985  0956  0828               	movf	___lwmod@divisor+1,w
  2986  0957  022A               	subwf	___lwmod@dividend+1,w
  2987  0958  1D03               	skipz
  2988  0959  295C               	goto	u3735
  2989  095A  0827               	movf	___lwmod@divisor,w
  2990  095B  0229               	subwf	___lwmod@dividend,w
  2991  095C                     u3735:	
  2992  095C  1C03               	skipc
  2993  095D  295F               	goto	u3731
  2994  095E  2960               	goto	u3730
  2995  095F                     u3731:	
  2996  095F  2966               	goto	l2662
  2997  0960                     u3730:	
  2998  0960                     l2660:	
  2999  0960  0827               	movf	___lwmod@divisor,w
  3000  0961  02A9               	subwf	___lwmod@dividend,f
  3001  0962  0828               	movf	___lwmod@divisor+1,w
  3002  0963  1C03               	skipc
  3003  0964  03AA               	decf	___lwmod@dividend+1,f
  3004  0965  02AA               	subwf	___lwmod@dividend+1,f
  3005  0966                     l2662:	
  3006  0966  3001               	movlw	1
  3007  0967                     u3745:	
  3008  0967  1003               	clrc
  3009  0968  0CA8               	rrf	___lwmod@divisor+1,f
  3010  0969  0CA7               	rrf	___lwmod@divisor,f
  3011  096A  3EFF               	addlw	-1
  3012  096B  1D03               	skipz
  3013  096C  2967               	goto	u3745
  3014  096D                     l2664:	
  3015  096D  3001               	movlw	1
  3016  096E  02AB               	subwf	___lwmod@counter,f
  3017  096F  1D03               	btfss	3,2
  3018  0970  2972               	goto	u3751
  3019  0971  2973               	goto	u3750
  3020  0972                     u3751:	
  3021  0972  2956               	goto	l2658
  3022  0973                     u3750:	
  3023  0973                     l2666:	
  3024  0973  082A               	movf	___lwmod@dividend+1,w
  3025  0974  00A8               	movwf	?___lwmod+1
  3026  0975  0829               	movf	___lwmod@dividend,w
  3027  0976  00A7               	movwf	?___lwmod
  3028  0977                     l562:	
  3029  0977  0008               	return
  3030  0978                     __end_of___lwmod:	
  3031                           
  3032                           	psect	text6
  3033  0978                     __ptext6:	
  3034 ;; *************** function ___lwdiv *****************
  3035 ;; Defined at:
  3036 ;;		line 5 in file "D:\Xc8\pic\sources\c90\common\lwdiv.c"
  3037 ;; Parameters:    Size  Location     Type
  3038 ;;  divisor         2    0[BANK0 ] unsigned int 
  3039 ;;  dividend        2    2[BANK0 ] unsigned int 
  3040 ;; Auto vars:     Size  Location     Type
  3041 ;;  quotient        2    5[BANK0 ] unsigned int 
  3042 ;;  counter         1    4[BANK0 ] unsigned char 
  3043 ;; Return value:  Size  Location     Type
  3044 ;;                  2    0[BANK0 ] unsigned int 
  3045 ;; Registers used:
  3046 ;;		wreg, status,2, status,0
  3047 ;; Tracked objects:
  3048 ;;		On entry : 0/0
  3049 ;;		On exit  : 0/0
  3050 ;;		Unchanged: 0/0
  3051 ;; Data sizes:     COMMON   BANK0   BANK1   BANK3   BANK2
  3052 ;;      Params:         0       4       0       0       0
  3053 ;;      Locals:         0       3       0       0       0
  3054 ;;      Temps:          1       0       0       0       0
  3055 ;;      Totals:         1       7       0       0       0
  3056 ;;Total ram usage:        8 bytes
  3057 ;; Hardware stack levels used:    1
  3058 ;; Hardware stack levels required when called:    2
  3059 ;; This function calls:
  3060 ;;		Nothing
  3061 ;; This function is called by:
  3062 ;;		_sprintf
  3063 ;; This function uses a non-reentrant model
  3064 ;;
  3065                           
  3066                           
  3067                           ;psect for function ___lwdiv
  3068  0978                     ___lwdiv:	
  3069  0978                     l2622:	
  3070                           ;incstack = 0
  3071                           ; Regs used in ___lwdiv: [wreg+status,2+status,0]
  3072                           
  3073  0978  1283               	bcf	3,5	;RP0=0, select bank0
  3074  0979  1303               	bcf	3,6	;RP1=0, select bank0
  3075  097A  01A5               	clrf	___lwdiv@quotient
  3076  097B  01A6               	clrf	___lwdiv@quotient+1
  3077  097C                     l2624:	
  3078  097C  0820               	movf	___lwdiv@divisor,w
  3079  097D  0421               	iorwf	___lwdiv@divisor+1,w
  3080  097E  1903               	btfsc	3,2
  3081  097F  2981               	goto	u3631
  3082  0980  2982               	goto	u3630
  3083  0981                     u3631:	
  3084  0981  29B9               	goto	l2644
  3085  0982                     u3630:	
  3086  0982                     l2626:	
  3087  0982  01A4               	clrf	___lwdiv@counter
  3088  0983  0AA4               	incf	___lwdiv@counter,f
  3089  0984  2990               	goto	l2632
  3090  0985                     l2628:	
  3091  0985  3001               	movlw	1
  3092  0986                     u3645:	
  3093  0986  1003               	clrc
  3094  0987  0DA0               	rlf	___lwdiv@divisor,f
  3095  0988  0DA1               	rlf	___lwdiv@divisor+1,f
  3096  0989  3EFF               	addlw	-1
  3097  098A  1D03               	skipz
  3098  098B  2986               	goto	u3645
  3099  098C                     l2630:	
  3100  098C  3001               	movlw	1
  3101  098D  00F5               	movwf	??___lwdiv
  3102  098E  0875               	movf	??___lwdiv,w
  3103  098F  07A4               	addwf	___lwdiv@counter,f
  3104  0990                     l2632:	
  3105  0990  1FA1               	btfss	___lwdiv@divisor+1,7
  3106  0991  2993               	goto	u3651
  3107  0992  2994               	goto	u3650
  3108  0993                     u3651:	
  3109  0993  2985               	goto	l2628
  3110  0994                     u3650:	
  3111  0994                     l2634:	
  3112  0994  3001               	movlw	1
  3113  0995                     u3665:	
  3114  0995  1003               	clrc
  3115  0996  0DA5               	rlf	___lwdiv@quotient,f
  3116  0997  0DA6               	rlf	___lwdiv@quotient+1,f
  3117  0998  3EFF               	addlw	-1
  3118  0999  1D03               	skipz
  3119  099A  2995               	goto	u3665
  3120  099B  0821               	movf	___lwdiv@divisor+1,w
  3121  099C  0223               	subwf	___lwdiv@dividend+1,w
  3122  099D  1D03               	skipz
  3123  099E  29A1               	goto	u3675
  3124  099F  0820               	movf	___lwdiv@divisor,w
  3125  09A0  0222               	subwf	___lwdiv@dividend,w
  3126  09A1                     u3675:	
  3127  09A1  1C03               	skipc
  3128  09A2  29A4               	goto	u3671
  3129  09A3  29A5               	goto	u3670
  3130  09A4                     u3671:	
  3131  09A4  29AC               	goto	l2640
  3132  09A5                     u3670:	
  3133  09A5                     l2636:	
  3134  09A5  0820               	movf	___lwdiv@divisor,w
  3135  09A6  02A2               	subwf	___lwdiv@dividend,f
  3136  09A7  0821               	movf	___lwdiv@divisor+1,w
  3137  09A8  1C03               	skipc
  3138  09A9  03A3               	decf	___lwdiv@dividend+1,f
  3139  09AA  02A3               	subwf	___lwdiv@dividend+1,f
  3140  09AB                     l2638:	
  3141  09AB  1425               	bsf	___lwdiv@quotient,0
  3142  09AC                     l2640:	
  3143  09AC  3001               	movlw	1
  3144  09AD                     u3685:	
  3145  09AD  1003               	clrc
  3146  09AE  0CA1               	rrf	___lwdiv@divisor+1,f
  3147  09AF  0CA0               	rrf	___lwdiv@divisor,f
  3148  09B0  3EFF               	addlw	-1
  3149  09B1  1D03               	skipz
  3150  09B2  29AD               	goto	u3685
  3151  09B3                     l2642:	
  3152  09B3  3001               	movlw	1
  3153  09B4  02A4               	subwf	___lwdiv@counter,f
  3154  09B5  1D03               	btfss	3,2
  3155  09B6  29B8               	goto	u3691
  3156  09B7  29B9               	goto	u3690
  3157  09B8                     u3691:	
  3158  09B8  2994               	goto	l2634
  3159  09B9                     u3690:	
  3160  09B9                     l2644:	
  3161  09B9  0826               	movf	___lwdiv@quotient+1,w
  3162  09BA  00A1               	movwf	?___lwdiv+1
  3163  09BB  0825               	movf	___lwdiv@quotient,w
  3164  09BC  00A0               	movwf	?___lwdiv
  3165  09BD                     l552:	
  3166  09BD  0008               	return
  3167  09BE                     __end_of___lwdiv:	
  3168                           
  3169                           	psect	text7
  3170  087D                     __ptext7:	
  3171 ;; *************** function _LCD_DataWrite *****************
  3172 ;; Defined at:
  3173 ;;		line 82 in file "LCD.c"
  3174 ;; Parameters:    Size  Location     Type
  3175 ;;  dato            2    0[BANK0 ] PTR unsigned char 
  3176 ;;		 -> STR_7(3), STR_6(3), STR_5(2), STR_4(3), 
  3177 ;;		 -> STR_3(2), STR_2(17), WriteInt_LCD@output1(3), 
  3178 ;; Auto vars:     Size  Location     Type
  3179 ;;		None
  3180 ;; Return value:  Size  Location     Type
  3181 ;;                  1    wreg      void 
  3182 ;; Registers used:
  3183 ;;		wreg, fsr0l, fsr0h, status,2, status,0, btemp+1, pclath, cstack
  3184 ;; Tracked objects:
  3185 ;;		On entry : 0/0
  3186 ;;		On exit  : 0/0
  3187 ;;		Unchanged: 0/0
  3188 ;; Data sizes:     COMMON   BANK0   BANK1   BANK3   BANK2
  3189 ;;      Params:         0       2       0       0       0
  3190 ;;      Locals:         0       0       0       0       0
  3191 ;;      Temps:          0       0       0       0       0
  3192 ;;      Totals:         0       2       0       0       0
  3193 ;;Total ram usage:        2 bytes
  3194 ;; Hardware stack levels used:    1
  3195 ;; Hardware stack levels required when called:    3
  3196 ;; This function calls:
  3197 ;;		_DWR_LCD
  3198 ;; This function is called by:
  3199 ;;		_WriteInt_LCD
  3200 ;;		_main
  3201 ;; This function uses a non-reentrant model
  3202 ;;
  3203                           
  3204                           
  3205                           ;psect for function _LCD_DataWrite
  3206  087D                     _LCD_DataWrite:	
  3207  087D                     l2878:	
  3208                           ;incstack = 0
  3209                           ; Regs used in _LCD_DataWrite: [wreg-fsr0h+status,2+status,0+btemp+1+pclath+cstack]
  3210                           
  3211                           
  3212                           ;LCD.c: 82: void LCD_DataWrite(unsigned char *dato);LCD.c: 83: {;LCD.c: 84:     while(*d
      +                          ato != 0)
  3213  087D  2894               	goto	l2884
  3214  087E                     l2880:	
  3215                           
  3216                           ;LCD.c: 85:         DWR_LCD(*dato++);
  3217  087E  0821               	movf	LCD_DataWrite@dato+1,w
  3218  087F  00FF               	movwf	btemp+1
  3219  0880  0820               	movf	LCD_DataWrite@dato,w
  3220  0881  0084               	movwf	4
  3221  0882  120A  158A  2000  120A  158A  	fcall	stringtab
  3222  0887  120A  158A  2105  120A  158A  	fcall	_DWR_LCD
  3223  088C                     l2882:	
  3224  088C  3001               	movlw	1
  3225  088D  1283               	bcf	3,5	;RP0=0, select bank0
  3226  088E  1303               	bcf	3,6	;RP1=0, select bank0
  3227  088F  07A0               	addwf	LCD_DataWrite@dato,f
  3228  0890  1803               	skipnc
  3229  0891  0AA1               	incf	LCD_DataWrite@dato+1,f
  3230  0892  3000               	movlw	0
  3231  0893  07A1               	addwf	LCD_DataWrite@dato+1,f
  3232  0894                     l2884:	
  3233                           
  3234                           ;LCD.c: 84:     while(*dato != 0)
  3235  0894  1283               	bcf	3,5	;RP0=0, select bank0
  3236  0895  1303               	bcf	3,6	;RP1=0, select bank0
  3237  0896  0821               	movf	LCD_DataWrite@dato+1,w
  3238  0897  00FF               	movwf	btemp+1
  3239  0898  0820               	movf	LCD_DataWrite@dato,w
  3240  0899  0084               	movwf	4
  3241  089A  120A  158A  2000  120A  158A  	fcall	stringtab
  3242  089F  3A00               	xorlw	0
  3243  08A0  1D03               	skipz
  3244  08A1  28A3               	goto	u4251
  3245  08A2  28A4               	goto	u4250
  3246  08A3                     u4251:	
  3247  08A3  287E               	goto	l2880
  3248  08A4                     u4250:	
  3249  08A4                     l22:	
  3250  08A4  0008               	return
  3251  08A5                     __end_of_LCD_DataWrite:	
  3252                           
  3253                           	psect	text8
  3254  0905                     __ptext8:	
  3255 ;; *************** function _DWR_LCD *****************
  3256 ;; Defined at:
  3257 ;;		line 59 in file "LCD.c"
  3258 ;; Parameters:    Size  Location     Type
  3259 ;;  dat             1    wreg     unsigned char 
  3260 ;; Auto vars:     Size  Location     Type
  3261 ;;  dat             1    6[COMMON] unsigned char 
  3262 ;; Return value:  Size  Location     Type
  3263 ;;                  1    wreg      void 
  3264 ;; Registers used:
  3265 ;;		wreg, status,2, status,0
  3266 ;; Tracked objects:
  3267 ;;		On entry : 0/0
  3268 ;;		On exit  : 0/0
  3269 ;;		Unchanged: 0/0
  3270 ;; Data sizes:     COMMON   BANK0   BANK1   BANK3   BANK2
  3271 ;;      Params:         0       0       0       0       0
  3272 ;;      Locals:         1       0       0       0       0
  3273 ;;      Temps:          1       0       0       0       0
  3274 ;;      Totals:         2       0       0       0       0
  3275 ;;Total ram usage:        2 bytes
  3276 ;; Hardware stack levels used:    1
  3277 ;; Hardware stack levels required when called:    2
  3278 ;; This function calls:
  3279 ;;		Nothing
  3280 ;; This function is called by:
  3281 ;;		_LCD_DataWrite
  3282 ;; This function uses a non-reentrant model
  3283 ;;
  3284                           
  3285                           
  3286                           ;psect for function _DWR_LCD
  3287  0905                     _DWR_LCD:	
  3288                           
  3289                           ;incstack = 0
  3290                           ; Regs used in _DWR_LCD: [wreg+status,2+status,0]
  3291                           ;DWR_LCD@dat stored from wreg
  3292  0905  00F6               	movwf	DWR_LCD@dat
  3293  0906                     l1738:	
  3294                           
  3295                           ;LCD.c: 59: void DWR_LCD(unsigned char dat);LCD.c: 60: {;LCD.c: 61:     PORTA = 0xFF;
  3296  0906  30FF               	movlw	255
  3297  0907  1283               	bcf	3,5	;RP0=0, select bank0
  3298  0908  1303               	bcf	3,6	;RP1=0, select bank0
  3299  0909  0085               	movwf	5	;volatile
  3300  090A                     l1740:	
  3301                           
  3302                           ;LCD.c: 62:     PORTA &= 0x80;
  3303  090A  3080               	movlw	128
  3304  090B  00F5               	movwf	??_DWR_LCD
  3305  090C  0875               	movf	??_DWR_LCD,w
  3306  090D  0585               	andwf	5,f	;volatile
  3307  090E                     l1742:	
  3308                           
  3309                           ;LCD.c: 63:     PORTCbits.RC2 = 0;
  3310  090E  1107               	bcf	7,2	;volatile
  3311  090F                     l1744:	
  3312                           
  3313                           ;LCD.c: 64:     PORTCbits.RC1 = 1;
  3314  090F  1487               	bsf	7,1	;volatile
  3315  0910                     l1746:	
  3316                           
  3317                           ;LCD.c: 65:     PORTCbits.RC0 = 0;
  3318  0910  1007               	bcf	7,0	;volatile
  3319  0911                     l1748:	
  3320                           
  3321                           ;LCD.c: 66:     _delay((unsigned long)((1)*(4000000/4000.0)));
  3322  0911  30C7               	movlw	199
  3323  0912  00F5               	movwf	??_DWR_LCD
  3324  0913                     u5047:	
  3325  0913  2914               	nop2
  3326  0914  0BF5               	decfsz	??_DWR_LCD,f
  3327  0915  2913               	goto	u5047
  3328  0916  2917               	nop2
  3329  0917  2918               	nop2
  3330  0918                     l1750:	
  3331                           
  3332                           ;LCD.c: 67:     PORTCbits.RC0 = 1;
  3333  0918  1283               	bcf	3,5	;RP0=0, select bank0
  3334  0919  1303               	bcf	3,6	;RP1=0, select bank0
  3335  091A  1407               	bsf	7,0	;volatile
  3336                           
  3337                           ;LCD.c: 68:     if(PORTA == 0x80)
  3338  091B  3080               	movlw	128
  3339  091C  0605               	xorwf	5,w	;volatile
  3340  091D  1D03               	btfss	3,2
  3341  091E  2920               	goto	u1831
  3342  091F  2921               	goto	u1830
  3343  0920                     u1831:	
  3344  0920  292C               	goto	l15
  3345  0921                     u1830:	
  3346  0921                     l1752:	
  3347                           
  3348                           ;LCD.c: 69:     {;LCD.c: 70:         PORTCbits.RC0 = 0; _delay((unsigned long)((1)*(4000
      +                          000/4000.0))); PORTCbits.RC0 = 1;
  3349  0921  1007               	bcf	7,0	;volatile
  3350  0922                     l1754:	
  3351  0922  30C7               	movlw	199
  3352  0923  00F5               	movwf	??_DWR_LCD
  3353  0924                     u5057:	
  3354  0924  2925               	nop2
  3355  0925  0BF5               	decfsz	??_DWR_LCD,f
  3356  0926  2924               	goto	u5057
  3357  0927  2928               	nop2
  3358  0928  2929               	nop2
  3359  0929                     l1756:	
  3360  0929  1283               	bcf	3,5	;RP0=0, select bank0
  3361  092A  1303               	bcf	3,6	;RP1=0, select bank0
  3362  092B  1407               	bsf	7,0	;volatile
  3363  092C                     l15:	
  3364                           ;LCD.c: 71:     }
  3365                           
  3366                           
  3367                           ;LCD.c: 73:     PORTA = dat;
  3368  092C  0876               	movf	DWR_LCD@dat,w
  3369  092D  0085               	movwf	5	;volatile
  3370  092E                     l1758:	
  3371                           
  3372                           ;LCD.c: 74:     PORTCbits.RC2 = 1;
  3373  092E  1507               	bsf	7,2	;volatile
  3374  092F                     l1760:	
  3375                           
  3376                           ;LCD.c: 75:     PORTCbits.RC1 = 0;
  3377  092F  1087               	bcf	7,1	;volatile
  3378  0930                     l1762:	
  3379                           
  3380                           ;LCD.c: 77:     PORTCbits.RC0 = 1;
  3381  0930  1407               	bsf	7,0	;volatile
  3382                           
  3383                           ;LCD.c: 78:     _delay((unsigned long)((1)*(4000000/4000.0)));
  3384  0931  30C7               	movlw	199
  3385  0932  00F5               	movwf	??_DWR_LCD
  3386  0933                     u5067:	
  3387  0933  2934               	nop2
  3388  0934  0BF5               	decfsz	??_DWR_LCD,f
  3389  0935  2933               	goto	u5067
  3390  0936  2937               	nop2
  3391  0937  2938               	nop2
  3392  0938                     l1764:	
  3393                           
  3394                           ;LCD.c: 79:     PORTCbits.RC0 = 0;
  3395  0938  1283               	bcf	3,5	;RP0=0, select bank0
  3396  0939  1303               	bcf	3,6	;RP1=0, select bank0
  3397  093A  1007               	bcf	7,0	;volatile
  3398  093B                     l16:	
  3399  093B  0008               	return
  3400  093C                     __end_of_DWR_LCD:	
  3401                           
  3402                           	psect	text9
  3403  0CDC                     __ptext9:	
  3404 ;; *************** function _FloatDec *****************
  3405 ;; Defined at:
  3406 ;;		line 147 in file "Laboratorio_3.c"
  3407 ;; Parameters:    Size  Location     Type
  3408 ;;  Variable        4   40[BANK0 ] float 
  3409 ;;  Selector        1   44[BANK0 ] unsigned char 
  3410 ;; Auto vars:     Size  Location     Type
  3411 ;;		None
  3412 ;; Return value:  Size  Location     Type
  3413 ;;                  1    wreg      void 
  3414 ;; Registers used:
  3415 ;;		wreg, status,2, status,0, btemp+1, pclath, cstack
  3416 ;; Tracked objects:
  3417 ;;		On entry : 0/0
  3418 ;;		On exit  : 0/0
  3419 ;;		Unchanged: 0/0
  3420 ;; Data sizes:     COMMON   BANK0   BANK1   BANK3   BANK2
  3421 ;;      Params:         0       5       0       0       0
  3422 ;;      Locals:         0       0       0       0       0
  3423 ;;      Temps:          0       4       0       0       0
  3424 ;;      Totals:         0       9       0       0       0
  3425 ;;Total ram usage:        9 bytes
  3426 ;; Hardware stack levels used:    1
  3427 ;; Hardware stack levels required when called:    4
  3428 ;; This function calls:
  3429 ;;		___flmul
  3430 ;;		___flsub
  3431 ;;		___fltol
  3432 ;;		___xxtofl
  3433 ;; This function is called by:
  3434 ;;		_main
  3435 ;; This function uses a non-reentrant model
  3436 ;;
  3437                           
  3438                           
  3439                           ;psect for function _FloatDec
  3440  0CDC                     _FloatDec:	
  3441  0CDC                     l3176:	
  3442                           ;incstack = 0
  3443                           ; Regs used in _FloatDec: [wreg+status,2+status,0+btemp+1+pclath+cstack]
  3444                           
  3445                           
  3446                           ;Laboratorio_3.c: 148:     Decenas = (int)Variable;
  3447  0CDC  1283               	bcf	3,5	;RP0=0, select bank0
  3448  0CDD  1303               	bcf	3,6	;RP1=0, select bank0
  3449  0CDE  084B               	movf	FloatDec@Variable+3,w
  3450  0CDF  00A3               	movwf	___fltol@f1+3
  3451  0CE0  084A               	movf	FloatDec@Variable+2,w
  3452  0CE1  00A2               	movwf	___fltol@f1+2
  3453  0CE2  0849               	movf	FloatDec@Variable+1,w
  3454  0CE3  00A1               	movwf	___fltol@f1+1
  3455  0CE4  0848               	movf	FloatDec@Variable,w
  3456  0CE5  00A0               	movwf	___fltol@f1
  3457  0CE6  120A  158A  2216  120A  158A  	fcall	___fltol
  3458  0CEB  1283               	bcf	3,5	;RP0=0, select bank0
  3459  0CEC  1303               	bcf	3,6	;RP1=0, select bank0
  3460  0CED  0820               	movf	?___fltol,w
  3461  0CEE  00CD               	movwf	??_FloatDec
  3462  0CEF  084D               	movf	??_FloatDec,w
  3463  0CF0  00E9               	movwf	_Decenas
  3464  0CF1                     l3178:	
  3465                           
  3466                           ;Laboratorio_3.c: 149:     tempU = Variable - Decenas;
  3467  0CF1  0869               	movf	_Decenas,w
  3468  0CF2  00CD               	movwf	??_FloatDec
  3469  0CF3  01CE               	clrf	??_FloatDec+1
  3470  0CF4  01CF               	clrf	??_FloatDec+2
  3471  0CF5  01D0               	clrf	??_FloatDec+3
  3472  0CF6  0850               	movf	??_FloatDec+3,w
  3473  0CF7  00A3               	movwf	___xxtofl@val+3
  3474  0CF8  084F               	movf	??_FloatDec+2,w
  3475  0CF9  00A2               	movwf	___xxtofl@val+2
  3476  0CFA  084E               	movf	??_FloatDec+1,w
  3477  0CFB  00A1               	movwf	___xxtofl@val+1
  3478  0CFC  084D               	movf	??_FloatDec,w
  3479  0CFD  00A0               	movwf	___xxtofl@val
  3480  0CFE  3001               	movlw	1
  3481  0CFF  120A  158A  2336  120A  158A  	fcall	___xxtofl
  3482  0D04  1283               	bcf	3,5	;RP0=0, select bank0
  3483  0D05  1303               	bcf	3,6	;RP1=0, select bank0
  3484  0D06  0823               	movf	?___xxtofl+3,w
  3485  0D07  00B7               	movwf	___flsub@a+3
  3486  0D08  0822               	movf	?___xxtofl+2,w
  3487  0D09  00B6               	movwf	___flsub@a+2
  3488  0D0A  0821               	movf	?___xxtofl+1,w
  3489  0D0B  00B5               	movwf	___flsub@a+1
  3490  0D0C  0820               	movf	?___xxtofl,w
  3491  0D0D  00B4               	movwf	___flsub@a
  3492  0D0E  084B               	movf	FloatDec@Variable+3,w
  3493  0D0F  00BB               	movwf	___flsub@b+3
  3494  0D10  084A               	movf	FloatDec@Variable+2,w
  3495  0D11  00BA               	movwf	___flsub@b+2
  3496  0D12  0849               	movf	FloatDec@Variable+1,w
  3497  0D13  00B9               	movwf	___flsub@b+1
  3498  0D14  0848               	movf	FloatDec@Variable,w
  3499  0D15  00B8               	movwf	___flsub@b
  3500  0D16  120A  158A  2059  120A  158A  	fcall	___flsub
  3501  0D1B  1283               	bcf	3,5	;RP0=0, select bank0
  3502  0D1C  1303               	bcf	3,6	;RP1=0, select bank0
  3503  0D1D  0837               	movf	?___flsub+3,w
  3504  0D1E  1683               	bsf	3,5	;RP0=1, select bank1
  3505  0D1F  1303               	bcf	3,6	;RP1=0, select bank1
  3506  0D20  00AF               	movwf	(_tempU+3)^(0+128)
  3507  0D21  1283               	bcf	3,5	;RP0=0, select bank0
  3508  0D22  1303               	bcf	3,6	;RP1=0, select bank0
  3509  0D23  0836               	movf	?___flsub+2,w
  3510  0D24  1683               	bsf	3,5	;RP0=1, select bank1
  3511  0D25  1303               	bcf	3,6	;RP1=0, select bank1
  3512  0D26  00AE               	movwf	(_tempU+2)^(0+128)
  3513  0D27  1283               	bcf	3,5	;RP0=0, select bank0
  3514  0D28  1303               	bcf	3,6	;RP1=0, select bank0
  3515  0D29  0835               	movf	?___flsub+1,w
  3516  0D2A  1683               	bsf	3,5	;RP0=1, select bank1
  3517  0D2B  1303               	bcf	3,6	;RP1=0, select bank1
  3518  0D2C  00AD               	movwf	(_tempU+1)^(0+128)
  3519  0D2D  1283               	bcf	3,5	;RP0=0, select bank0
  3520  0D2E  1303               	bcf	3,6	;RP1=0, select bank0
  3521  0D2F  0834               	movf	?___flsub,w
  3522  0D30  1683               	bsf	3,5	;RP0=1, select bank1
  3523  0D31  1303               	bcf	3,6	;RP1=0, select bank1
  3524  0D32  00AC               	movwf	_tempU^(0+128)
  3525  0D33                     l3180:	
  3526                           
  3527                           ;Laboratorio_3.c: 150:     tempU = tempU * 100;
  3528  0D33  3042               	movlw	66
  3529  0D34  1283               	bcf	3,5	;RP0=0, select bank0
  3530  0D35  1303               	bcf	3,6	;RP1=0, select bank0
  3531  0D36  00B1               	movwf	___flmul@b+3
  3532  0D37  30C8               	movlw	200
  3533  0D38  00B0               	movwf	___flmul@b+2
  3534  0D39  3000               	movlw	0
  3535  0D3A  00AF               	movwf	___flmul@b+1
  3536  0D3B  3000               	movlw	0
  3537  0D3C  00AE               	movwf	___flmul@b
  3538  0D3D  1683               	bsf	3,5	;RP0=1, select bank1
  3539  0D3E  1303               	bcf	3,6	;RP1=0, select bank1
  3540  0D3F  082F               	movf	(_tempU+3)^(0+128),w
  3541  0D40  1283               	bcf	3,5	;RP0=0, select bank0
  3542  0D41  1303               	bcf	3,6	;RP1=0, select bank0
  3543  0D42  00B5               	movwf	___flmul@a+3
  3544  0D43  1683               	bsf	3,5	;RP0=1, select bank1
  3545  0D44  1303               	bcf	3,6	;RP1=0, select bank1
  3546  0D45  082E               	movf	(_tempU+2)^(0+128),w
  3547  0D46  1283               	bcf	3,5	;RP0=0, select bank0
  3548  0D47  1303               	bcf	3,6	;RP1=0, select bank0
  3549  0D48  00B4               	movwf	___flmul@a+2
  3550  0D49  1683               	bsf	3,5	;RP0=1, select bank1
  3551  0D4A  1303               	bcf	3,6	;RP1=0, select bank1
  3552  0D4B  082D               	movf	(_tempU+1)^(0+128),w
  3553  0D4C  1283               	bcf	3,5	;RP0=0, select bank0
  3554  0D4D  1303               	bcf	3,6	;RP1=0, select bank0
  3555  0D4E  00B3               	movwf	___flmul@a+1
  3556  0D4F  1683               	bsf	3,5	;RP0=1, select bank1
  3557  0D50  1303               	bcf	3,6	;RP1=0, select bank1
  3558  0D51  082C               	movf	_tempU^(0+128),w
  3559  0D52  1283               	bcf	3,5	;RP0=0, select bank0
  3560  0D53  1303               	bcf	3,6	;RP1=0, select bank0
  3561  0D54  00B2               	movwf	___flmul@a
  3562  0D55  120A  118A  2031  120A  158A  	fcall	___flmul
  3563  0D5A  1283               	bcf	3,5	;RP0=0, select bank0
  3564  0D5B  1303               	bcf	3,6	;RP1=0, select bank0
  3565  0D5C  0831               	movf	?___flmul+3,w
  3566  0D5D  1683               	bsf	3,5	;RP0=1, select bank1
  3567  0D5E  1303               	bcf	3,6	;RP1=0, select bank1
  3568  0D5F  00AF               	movwf	(_tempU+3)^(0+128)
  3569  0D60  1283               	bcf	3,5	;RP0=0, select bank0
  3570  0D61  1303               	bcf	3,6	;RP1=0, select bank0
  3571  0D62  0830               	movf	?___flmul+2,w
  3572  0D63  1683               	bsf	3,5	;RP0=1, select bank1
  3573  0D64  1303               	bcf	3,6	;RP1=0, select bank1
  3574  0D65  00AE               	movwf	(_tempU+2)^(0+128)
  3575  0D66  1283               	bcf	3,5	;RP0=0, select bank0
  3576  0D67  1303               	bcf	3,6	;RP1=0, select bank0
  3577  0D68  082F               	movf	?___flmul+1,w
  3578  0D69  1683               	bsf	3,5	;RP0=1, select bank1
  3579  0D6A  1303               	bcf	3,6	;RP1=0, select bank1
  3580  0D6B  00AD               	movwf	(_tempU+1)^(0+128)
  3581  0D6C  1283               	bcf	3,5	;RP0=0, select bank0
  3582  0D6D  1303               	bcf	3,6	;RP1=0, select bank0
  3583  0D6E  082E               	movf	?___flmul,w
  3584  0D6F  1683               	bsf	3,5	;RP0=1, select bank1
  3585  0D70  1303               	bcf	3,6	;RP1=0, select bank1
  3586  0D71  00AC               	movwf	_tempU^(0+128)
  3587                           
  3588                           ;Laboratorio_3.c: 151:     Unidades = (int)tempU;
  3589  0D72  082F               	movf	(_tempU+3)^(0+128),w
  3590  0D73  1283               	bcf	3,5	;RP0=0, select bank0
  3591  0D74  1303               	bcf	3,6	;RP1=0, select bank0
  3592  0D75  00A3               	movwf	___fltol@f1+3
  3593  0D76  1683               	bsf	3,5	;RP0=1, select bank1
  3594  0D77  1303               	bcf	3,6	;RP1=0, select bank1
  3595  0D78  082E               	movf	(_tempU+2)^(0+128),w
  3596  0D79  1283               	bcf	3,5	;RP0=0, select bank0
  3597  0D7A  1303               	bcf	3,6	;RP1=0, select bank0
  3598  0D7B  00A2               	movwf	___fltol@f1+2
  3599  0D7C  1683               	bsf	3,5	;RP0=1, select bank1
  3600  0D7D  1303               	bcf	3,6	;RP1=0, select bank1
  3601  0D7E  082D               	movf	(_tempU+1)^(0+128),w
  3602  0D7F  1283               	bcf	3,5	;RP0=0, select bank0
  3603  0D80  1303               	bcf	3,6	;RP1=0, select bank0
  3604  0D81  00A1               	movwf	___fltol@f1+1
  3605  0D82  1683               	bsf	3,5	;RP0=1, select bank1
  3606  0D83  1303               	bcf	3,6	;RP1=0, select bank1
  3607  0D84  082C               	movf	_tempU^(0+128),w
  3608  0D85  1283               	bcf	3,5	;RP0=0, select bank0
  3609  0D86  1303               	bcf	3,6	;RP1=0, select bank0
  3610  0D87  00A0               	movwf	___fltol@f1
  3611  0D88  120A  158A  2216  120A  158A  	fcall	___fltol
  3612  0D8D  1283               	bcf	3,5	;RP0=0, select bank0
  3613  0D8E  1303               	bcf	3,6	;RP1=0, select bank0
  3614  0D8F  0820               	movf	?___fltol,w
  3615  0D90  00CD               	movwf	??_FloatDec
  3616  0D91  084D               	movf	??_FloatDec,w
  3617  0D92  00E8               	movwf	_Unidades
  3618  0D93                     l3182:	
  3619                           
  3620                           ;Laboratorio_3.c: 152:     if(Selector){
  3621  0D93  084C               	movf	FloatDec@Selector,w
  3622  0D94  1903               	btfsc	3,2
  3623  0D95  2D97               	goto	u4941
  3624  0D96  2D98               	goto	u4940
  3625  0D97                     u4941:	
  3626  0D97  2DBA               	goto	l3188
  3627  0D98                     u4940:	
  3628  0D98                     l3184:	
  3629                           
  3630                           ;Laboratorio_3.c: 153:         Dec_1 = Decenas;
  3631  0D98  0869               	movf	_Decenas,w
  3632  0D99  00CD               	movwf	??_FloatDec
  3633  0D9A  084D               	movf	??_FloatDec,w
  3634  0D9B  00E7               	movwf	_Dec_1
  3635  0D9C                     l3186:	
  3636                           
  3637                           ;Laboratorio_3.c: 154:         Uni_1 = Unidades;
  3638  0D9C  0868               	movf	_Unidades,w
  3639  0D9D  00CD               	movwf	??_FloatDec
  3640  0D9E  01CE               	clrf	??_FloatDec+1
  3641  0D9F  01CF               	clrf	??_FloatDec+2
  3642  0DA0  01D0               	clrf	??_FloatDec+3
  3643  0DA1  0850               	movf	??_FloatDec+3,w
  3644  0DA2  00A3               	movwf	___xxtofl@val+3
  3645  0DA3  084F               	movf	??_FloatDec+2,w
  3646  0DA4  00A2               	movwf	___xxtofl@val+2
  3647  0DA5  084E               	movf	??_FloatDec+1,w
  3648  0DA6  00A1               	movwf	___xxtofl@val+1
  3649  0DA7  084D               	movf	??_FloatDec,w
  3650  0DA8  00A0               	movwf	___xxtofl@val
  3651  0DA9  3000               	movlw	0
  3652  0DAA  120A  158A  2336  120A  158A  	fcall	___xxtofl
  3653  0DAF  1283               	bcf	3,5	;RP0=0, select bank0
  3654  0DB0  1303               	bcf	3,6	;RP1=0, select bank0
  3655  0DB1  0823               	movf	?___xxtofl+3,w
  3656  0DB2  00E5               	movwf	_Uni_1+3
  3657  0DB3  0822               	movf	?___xxtofl+2,w
  3658  0DB4  00E4               	movwf	_Uni_1+2
  3659  0DB5  0821               	movf	?___xxtofl+1,w
  3660  0DB6  00E3               	movwf	_Uni_1+1
  3661  0DB7  0820               	movf	?___xxtofl,w
  3662  0DB8  00E2               	movwf	_Uni_1
  3663                           
  3664                           ;Laboratorio_3.c: 155:     }else{
  3665  0DB9  2DE9               	goto	l166
  3666  0DBA                     l3188:	
  3667                           
  3668                           ;Laboratorio_3.c: 156:         Dec_2 = Decenas;
  3669  0DBA  0869               	movf	_Decenas,w
  3670  0DBB  00CD               	movwf	??_FloatDec
  3671  0DBC  084D               	movf	??_FloatDec,w
  3672  0DBD  00E6               	movwf	_Dec_2
  3673  0DBE                     l3190:	
  3674                           
  3675                           ;Laboratorio_3.c: 157:         Uni_2 = Unidades;
  3676  0DBE  0868               	movf	_Unidades,w
  3677  0DBF  00CD               	movwf	??_FloatDec
  3678  0DC0  01CE               	clrf	??_FloatDec+1
  3679  0DC1  01CF               	clrf	??_FloatDec+2
  3680  0DC2  01D0               	clrf	??_FloatDec+3
  3681  0DC3  0850               	movf	??_FloatDec+3,w
  3682  0DC4  00A3               	movwf	___xxtofl@val+3
  3683  0DC5  084F               	movf	??_FloatDec+2,w
  3684  0DC6  00A2               	movwf	___xxtofl@val+2
  3685  0DC7  084E               	movf	??_FloatDec+1,w
  3686  0DC8  00A1               	movwf	___xxtofl@val+1
  3687  0DC9  084D               	movf	??_FloatDec,w
  3688  0DCA  00A0               	movwf	___xxtofl@val
  3689  0DCB  3000               	movlw	0
  3690  0DCC  120A  158A  2336  120A  158A  	fcall	___xxtofl
  3691  0DD1  1283               	bcf	3,5	;RP0=0, select bank0
  3692  0DD2  1303               	bcf	3,6	;RP1=0, select bank0
  3693  0DD3  0823               	movf	?___xxtofl+3,w
  3694  0DD4  1683               	bsf	3,5	;RP0=1, select bank1
  3695  0DD5  1303               	bcf	3,6	;RP1=0, select bank1
  3696  0DD6  00B3               	movwf	(_Uni_2+3)^(0+128)
  3697  0DD7  1283               	bcf	3,5	;RP0=0, select bank0
  3698  0DD8  1303               	bcf	3,6	;RP1=0, select bank0
  3699  0DD9  0822               	movf	?___xxtofl+2,w
  3700  0DDA  1683               	bsf	3,5	;RP0=1, select bank1
  3701  0DDB  1303               	bcf	3,6	;RP1=0, select bank1
  3702  0DDC  00B2               	movwf	(_Uni_2+2)^(0+128)
  3703  0DDD  1283               	bcf	3,5	;RP0=0, select bank0
  3704  0DDE  1303               	bcf	3,6	;RP1=0, select bank0
  3705  0DDF  0821               	movf	?___xxtofl+1,w
  3706  0DE0  1683               	bsf	3,5	;RP0=1, select bank1
  3707  0DE1  1303               	bcf	3,6	;RP1=0, select bank1
  3708  0DE2  00B1               	movwf	(_Uni_2+1)^(0+128)
  3709  0DE3  1283               	bcf	3,5	;RP0=0, select bank0
  3710  0DE4  1303               	bcf	3,6	;RP1=0, select bank0
  3711  0DE5  0820               	movf	?___xxtofl,w
  3712  0DE6  1683               	bsf	3,5	;RP0=1, select bank1
  3713  0DE7  1303               	bcf	3,6	;RP1=0, select bank1
  3714  0DE8  00B0               	movwf	_Uni_2^(0+128)
  3715  0DE9                     l166:	
  3716  0DE9  0008               	return
  3717  0DEA                     __end_of_FloatDec:	
  3718                           
  3719                           	psect	text10
  3720  0B36                     __ptext10:	
  3721 ;; *************** function ___xxtofl *****************
  3722 ;; Defined at:
  3723 ;;		line 10 in file "D:\Xc8\pic\sources\c90\common\xxtofl.c"
  3724 ;; Parameters:    Size  Location     Type
  3725 ;;  sign            1    wreg     unsigned char 
  3726 ;;  val             4    0[BANK0 ] long 
  3727 ;; Auto vars:     Size  Location     Type
  3728 ;;  sign            1    8[BANK0 ] unsigned char 
  3729 ;;  arg             4   10[BANK0 ] unsigned long 
  3730 ;;  exp             1    9[BANK0 ] unsigned char 
  3731 ;; Return value:  Size  Location     Type
  3732 ;;                  4    0[BANK0 ] unsigned char 
  3733 ;; Registers used:
  3734 ;;		wreg, status,2, status,0
  3735 ;; Tracked objects:
  3736 ;;		On entry : 0/0
  3737 ;;		On exit  : 0/0
  3738 ;;		Unchanged: 0/0
  3739 ;; Data sizes:     COMMON   BANK0   BANK1   BANK3   BANK2
  3740 ;;      Params:         0       4       0       0       0
  3741 ;;      Locals:         0       6       0       0       0
  3742 ;;      Temps:          0       4       0       0       0
  3743 ;;      Totals:         0      14       0       0       0
  3744 ;;Total ram usage:       14 bytes
  3745 ;; Hardware stack levels used:    1
  3746 ;; Hardware stack levels required when called:    2
  3747 ;; This function calls:
  3748 ;;		Nothing
  3749 ;; This function is called by:
  3750 ;;		_main
  3751 ;;		_FloatDec
  3752 ;; This function uses a non-reentrant model
  3753 ;;
  3754                           
  3755                           
  3756                           ;psect for function ___xxtofl
  3757  0B36                     ___xxtofl:	
  3758                           
  3759                           ;incstack = 0
  3760                           ; Regs used in ___xxtofl: [wreg+status,2+status,0]
  3761                           ;___xxtofl@sign stored from wreg
  3762  0B36  1283               	bcf	3,5	;RP0=0, select bank0
  3763  0B37  1303               	bcf	3,6	;RP1=0, select bank0
  3764  0B38  00A8               	movwf	___xxtofl@sign
  3765  0B39                     l3130:	
  3766  0B39  0828               	movf	___xxtofl@sign,w
  3767  0B3A  1903               	btfsc	3,2
  3768  0B3B  2B3D               	goto	u4801
  3769  0B3C  2B3E               	goto	u4800
  3770  0B3D                     u4801:	
  3771  0B3D  2B52               	goto	l3136
  3772  0B3E                     u4800:	
  3773  0B3E                     l3132:	
  3774  0B3E  1FA3               	btfss	___xxtofl@val+3,7
  3775  0B3F  2B41               	goto	u4811
  3776  0B40  2B42               	goto	u4810
  3777  0B41                     u4811:	
  3778  0B41  2B52               	goto	l3136
  3779  0B42                     u4810:	
  3780  0B42                     l3134:	
  3781  0B42  0920               	comf	___xxtofl@val,w
  3782  0B43  00AA               	movwf	___xxtofl@arg
  3783  0B44  0921               	comf	___xxtofl@val+1,w
  3784  0B45  00AB               	movwf	___xxtofl@arg+1
  3785  0B46  0922               	comf	___xxtofl@val+2,w
  3786  0B47  00AC               	movwf	___xxtofl@arg+2
  3787  0B48  0923               	comf	___xxtofl@val+3,w
  3788  0B49  00AD               	movwf	___xxtofl@arg+3
  3789  0B4A  0AAA               	incf	___xxtofl@arg,f
  3790  0B4B  1903               	skipnz
  3791  0B4C  0AAB               	incf	___xxtofl@arg+1,f
  3792  0B4D  1903               	skipnz
  3793  0B4E  0AAC               	incf	___xxtofl@arg+2,f
  3794  0B4F  1903               	skipnz
  3795  0B50  0AAD               	incf	___xxtofl@arg+3,f
  3796  0B51  2B5A               	goto	l707
  3797  0B52                     l3136:	
  3798  0B52  0823               	movf	___xxtofl@val+3,w
  3799  0B53  00AD               	movwf	___xxtofl@arg+3
  3800  0B54  0822               	movf	___xxtofl@val+2,w
  3801  0B55  00AC               	movwf	___xxtofl@arg+2
  3802  0B56  0821               	movf	___xxtofl@val+1,w
  3803  0B57  00AB               	movwf	___xxtofl@arg+1
  3804  0B58  0820               	movf	___xxtofl@val,w
  3805  0B59  00AA               	movwf	___xxtofl@arg
  3806  0B5A                     l707:	
  3807  0B5A  0823               	movf	___xxtofl@val+3,w
  3808  0B5B  0422               	iorwf	___xxtofl@val+2,w
  3809  0B5C  0421               	iorwf	___xxtofl@val+1,w
  3810  0B5D  0420               	iorwf	___xxtofl@val,w
  3811  0B5E  1D03               	skipz
  3812  0B5F  2B61               	goto	u4821
  3813  0B60  2B62               	goto	u4820
  3814  0B61                     u4821:	
  3815  0B61  2B6B               	goto	l3142
  3816  0B62                     u4820:	
  3817  0B62                     l3138:	
  3818  0B62  3000               	movlw	0
  3819  0B63  00A3               	movwf	?___xxtofl+3
  3820  0B64  3000               	movlw	0
  3821  0B65  00A2               	movwf	?___xxtofl+2
  3822  0B66  3000               	movlw	0
  3823  0B67  00A1               	movwf	?___xxtofl+1
  3824  0B68  3000               	movlw	0
  3825  0B69  00A0               	movwf	?___xxtofl
  3826  0B6A  2BF1               	goto	l709
  3827  0B6B                     l3142:	
  3828  0B6B  3096               	movlw	150
  3829  0B6C  00A4               	movwf	??___xxtofl
  3830  0B6D  0824               	movf	??___xxtofl,w
  3831  0B6E  00A9               	movwf	___xxtofl@exp
  3832  0B6F  2B7D               	goto	l3146
  3833  0B70                     l3144:	
  3834  0B70  3001               	movlw	1
  3835  0B71  00A4               	movwf	??___xxtofl
  3836  0B72  0824               	movf	??___xxtofl,w
  3837  0B73  07A9               	addwf	___xxtofl@exp,f
  3838  0B74  3001               	movlw	1
  3839  0B75                     u4835:	
  3840  0B75  1003               	clrc
  3841  0B76  0CAD               	rrf	___xxtofl@arg+3,f
  3842  0B77  0CAC               	rrf	___xxtofl@arg+2,f
  3843  0B78  0CAB               	rrf	___xxtofl@arg+1,f
  3844  0B79  0CAA               	rrf	___xxtofl@arg,f
  3845  0B7A  3EFF               	addlw	-1
  3846  0B7B  1D03               	skipz
  3847  0B7C  2B75               	goto	u4835
  3848  0B7D                     l3146:	
  3849  0B7D  30FE               	movlw	254
  3850  0B7E  052D               	andwf	___xxtofl@arg+3,w
  3851  0B7F  1D03               	btfss	3,2
  3852  0B80  2B82               	goto	u4841
  3853  0B81  2B83               	goto	u4840
  3854  0B82                     u4841:	
  3855  0B82  2B70               	goto	l3144
  3856  0B83                     u4840:	
  3857  0B83  2B9F               	goto	l713
  3858  0B84                     l3148:	
  3859  0B84  3001               	movlw	1
  3860  0B85  00A4               	movwf	??___xxtofl
  3861  0B86  0824               	movf	??___xxtofl,w
  3862  0B87  07A9               	addwf	___xxtofl@exp,f
  3863  0B88                     l3150:	
  3864  0B88  3001               	movlw	1
  3865  0B89  07AA               	addwf	___xxtofl@arg,f
  3866  0B8A  3000               	movlw	0
  3867  0B8B  1803               	skipnc
  3868  0B8C  3001               	movlw	1
  3869  0B8D  07AB               	addwf	___xxtofl@arg+1,f
  3870  0B8E  3000               	movlw	0
  3871  0B8F  1803               	skipnc
  3872  0B90  3001               	movlw	1
  3873  0B91  07AC               	addwf	___xxtofl@arg+2,f
  3874  0B92  3000               	movlw	0
  3875  0B93  1803               	skipnc
  3876  0B94  3001               	movlw	1
  3877  0B95  07AD               	addwf	___xxtofl@arg+3,f
  3878  0B96                     l3152:	
  3879  0B96  3001               	movlw	1
  3880  0B97                     u4855:	
  3881  0B97  1003               	clrc
  3882  0B98  0CAD               	rrf	___xxtofl@arg+3,f
  3883  0B99  0CAC               	rrf	___xxtofl@arg+2,f
  3884  0B9A  0CAB               	rrf	___xxtofl@arg+1,f
  3885  0B9B  0CAA               	rrf	___xxtofl@arg,f
  3886  0B9C  3EFF               	addlw	-1
  3887  0B9D  1D03               	skipz
  3888  0B9E  2B97               	goto	u4855
  3889  0B9F                     l713:	
  3890  0B9F  30FF               	movlw	255
  3891  0BA0  052D               	andwf	___xxtofl@arg+3,w
  3892  0BA1  1D03               	btfss	3,2
  3893  0BA2  2BA4               	goto	u4861
  3894  0BA3  2BA5               	goto	u4860
  3895  0BA4                     u4861:	
  3896  0BA4  2B84               	goto	l3148
  3897  0BA5                     u4860:	
  3898  0BA5  2BB1               	goto	l3156
  3899  0BA6                     l3154:	
  3900  0BA6  3001               	movlw	1
  3901  0BA7  02A9               	subwf	___xxtofl@exp,f
  3902  0BA8  3001               	movlw	1
  3903  0BA9  00A4               	movwf	??___xxtofl
  3904  0BAA                     u4875:	
  3905  0BAA  1003               	clrc
  3906  0BAB  0DAA               	rlf	___xxtofl@arg,f
  3907  0BAC  0DAB               	rlf	___xxtofl@arg+1,f
  3908  0BAD  0DAC               	rlf	___xxtofl@arg+2,f
  3909  0BAE  0DAD               	rlf	___xxtofl@arg+3,f
  3910  0BAF  0BA4               	decfsz	??___xxtofl,f
  3911  0BB0  2BAA               	goto	u4875
  3912  0BB1                     l3156:	
  3913  0BB1  1BAC               	btfsc	___xxtofl@arg+2,7
  3914  0BB2  2BB4               	goto	u4881
  3915  0BB3  2BB5               	goto	u4880
  3916  0BB4                     u4881:	
  3917  0BB4  2BBB               	goto	l720
  3918  0BB5                     u4880:	
  3919  0BB5                     l3158:	
  3920  0BB5  3002               	movlw	2
  3921  0BB6  0229               	subwf	___xxtofl@exp,w
  3922  0BB7  1803               	skipnc
  3923  0BB8  2BBA               	goto	u4891
  3924  0BB9  2BBB               	goto	u4890
  3925  0BBA                     u4891:	
  3926  0BBA  2BA6               	goto	l3154
  3927  0BBB                     u4890:	
  3928  0BBB                     l720:	
  3929  0BBB  1829               	btfsc	___xxtofl@exp,0
  3930  0BBC  2BBE               	goto	u4901
  3931  0BBD  2BBF               	goto	u4900
  3932  0BBE                     u4901:	
  3933  0BBE  2BC7               	goto	l721
  3934  0BBF                     u4900:	
  3935  0BBF                     l3160:	
  3936  0BBF  30FF               	movlw	255
  3937  0BC0  05AA               	andwf	___xxtofl@arg,f
  3938  0BC1  30FF               	movlw	255
  3939  0BC2  05AB               	andwf	___xxtofl@arg+1,f
  3940  0BC3  307F               	movlw	127
  3941  0BC4  05AC               	andwf	___xxtofl@arg+2,f
  3942  0BC5  30FF               	movlw	255
  3943  0BC6  05AD               	andwf	___xxtofl@arg+3,f
  3944  0BC7                     l721:	
  3945  0BC7  1003               	clrc
  3946  0BC8  0CA9               	rrf	___xxtofl@exp,f
  3947  0BC9                     l3162:	
  3948  0BC9  0829               	movf	___xxtofl@exp,w
  3949  0BCA  00A4               	movwf	??___xxtofl
  3950  0BCB  01A5               	clrf	??___xxtofl+1
  3951  0BCC  01A6               	clrf	??___xxtofl+2
  3952  0BCD  01A7               	clrf	??___xxtofl+3
  3953  0BCE  3018               	movlw	24
  3954  0BCF                     u4915:	
  3955  0BCF  1003               	clrc
  3956  0BD0  0DA4               	rlf	??___xxtofl,f
  3957  0BD1  0DA5               	rlf	??___xxtofl+1,f
  3958  0BD2  0DA6               	rlf	??___xxtofl+2,f
  3959  0BD3  0DA7               	rlf	??___xxtofl+3,f
  3960  0BD4                     u4910:	
  3961  0BD4  3EFF               	addlw	-1
  3962  0BD5  1D03               	skipz
  3963  0BD6  2BCF               	goto	u4915
  3964  0BD7  0824               	movf	??___xxtofl,w
  3965  0BD8  04AA               	iorwf	___xxtofl@arg,f
  3966  0BD9  0825               	movf	??___xxtofl+1,w
  3967  0BDA  04AB               	iorwf	___xxtofl@arg+1,f
  3968  0BDB  0826               	movf	??___xxtofl+2,w
  3969  0BDC  04AC               	iorwf	___xxtofl@arg+2,f
  3970  0BDD  0827               	movf	??___xxtofl+3,w
  3971  0BDE  04AD               	iorwf	___xxtofl@arg+3,f
  3972  0BDF                     l3164:	
  3973  0BDF  0828               	movf	___xxtofl@sign,w
  3974  0BE0  1903               	btfsc	3,2
  3975  0BE1  2BE3               	goto	u4921
  3976  0BE2  2BE4               	goto	u4920
  3977  0BE3                     u4921:	
  3978  0BE3  2BE9               	goto	l3170
  3979  0BE4                     u4920:	
  3980  0BE4                     l3166:	
  3981  0BE4  1FA3               	btfss	___xxtofl@val+3,7
  3982  0BE5  2BE7               	goto	u4931
  3983  0BE6  2BE8               	goto	u4930
  3984  0BE7                     u4931:	
  3985  0BE7  2BE9               	goto	l3170
  3986  0BE8                     u4930:	
  3987  0BE8                     l3168:	
  3988  0BE8  17AD               	bsf	___xxtofl@arg+3,7
  3989  0BE9                     l3170:	
  3990  0BE9  082D               	movf	___xxtofl@arg+3,w
  3991  0BEA  00A3               	movwf	?___xxtofl+3
  3992  0BEB  082C               	movf	___xxtofl@arg+2,w
  3993  0BEC  00A2               	movwf	?___xxtofl+2
  3994  0BED  082B               	movf	___xxtofl@arg+1,w
  3995  0BEE  00A1               	movwf	?___xxtofl+1
  3996  0BEF  082A               	movf	___xxtofl@arg,w
  3997  0BF0  00A0               	movwf	?___xxtofl
  3998  0BF1                     l709:	
  3999  0BF1  0008               	return
  4000  0BF2                     __end_of___xxtofl:	
  4001                           
  4002                           	psect	text11
  4003  0A16                     __ptext11:	
  4004 ;; *************** function ___fltol *****************
  4005 ;; Defined at:
  4006 ;;		line 43 in file "D:\Xc8\pic\sources\c90\common\fltol.c"
  4007 ;; Parameters:    Size  Location     Type
  4008 ;;  f1              4    0[BANK0 ] unsigned char 
  4009 ;; Auto vars:     Size  Location     Type
  4010 ;;  exp1            1    6[COMMON] unsigned char 
  4011 ;;  sign1           1    5[COMMON] unsigned char 
  4012 ;; Return value:  Size  Location     Type
  4013 ;;                  4    0[BANK0 ] long 
  4014 ;; Registers used:
  4015 ;;		wreg, status,2, status,0
  4016 ;; Tracked objects:
  4017 ;;		On entry : 0/0
  4018 ;;		On exit  : 0/0
  4019 ;;		Unchanged: 0/0
  4020 ;; Data sizes:     COMMON   BANK0   BANK1   BANK3   BANK2
  4021 ;;      Params:         0       4       0       0       0
  4022 ;;      Locals:         2       0       0       0       0
  4023 ;;      Temps:          0       5       0       0       0
  4024 ;;      Totals:         2       9       0       0       0
  4025 ;;Total ram usage:       11 bytes
  4026 ;; Hardware stack levels used:    1
  4027 ;; Hardware stack levels required when called:    2
  4028 ;; This function calls:
  4029 ;;		Nothing
  4030 ;; This function is called by:
  4031 ;;		_main
  4032 ;;		_FloatDec
  4033 ;; This function uses a non-reentrant model
  4034 ;;
  4035                           
  4036                           
  4037                           ;psect for function ___fltol
  4038  0A16                     ___fltol:	
  4039  0A16                     l2948:	
  4040                           ;incstack = 0
  4041                           ; Regs used in ___fltol: [wreg+status,2+status,0]
  4042                           
  4043  0A16  1003               	clrc
  4044  0A17  1283               	bcf	3,5	;RP0=0, select bank0
  4045  0A18  1303               	bcf	3,6	;RP1=0, select bank0
  4046  0A19  0D22               	rlf	___fltol@f1+2,w
  4047  0A1A  0D23               	rlf	___fltol@f1+3,w
  4048  0A1B  00A4               	movwf	??___fltol
  4049  0A1C  0824               	movf	??___fltol,w
  4050  0A1D  00F6               	movwf	___fltol@exp1
  4051  0A1E  0876               	movf	___fltol@exp1,w
  4052  0A1F  1D03               	btfss	3,2
  4053  0A20  2A22               	goto	u4331
  4054  0A21  2A23               	goto	u4330
  4055  0A22                     u4331:	
  4056  0A22  2A2C               	goto	l2954
  4057  0A23                     u4330:	
  4058  0A23                     l2950:	
  4059  0A23  3000               	movlw	0
  4060  0A24  00A3               	movwf	?___fltol+3
  4061  0A25  3000               	movlw	0
  4062  0A26  00A2               	movwf	?___fltol+2
  4063  0A27  3000               	movlw	0
  4064  0A28  00A1               	movwf	?___fltol+1
  4065  0A29  3000               	movlw	0
  4066  0A2A  00A0               	movwf	?___fltol
  4067  0A2B  2A91               	goto	l466
  4068  0A2C                     l2954:	
  4069  0A2C  0820               	movf	___fltol@f1,w
  4070  0A2D  00A4               	movwf	??___fltol
  4071  0A2E  0821               	movf	___fltol@f1+1,w
  4072  0A2F  00A5               	movwf	??___fltol+1
  4073  0A30  0822               	movf	___fltol@f1+2,w
  4074  0A31  00A6               	movwf	??___fltol+2
  4075  0A32  0823               	movf	___fltol@f1+3,w
  4076  0A33  00A7               	movwf	??___fltol+3
  4077  0A34  301F               	movlw	31
  4078  0A35                     u4345:	
  4079  0A35  1003               	clrc
  4080  0A36  0CA7               	rrf	??___fltol+3,f
  4081  0A37  0CA6               	rrf	??___fltol+2,f
  4082  0A38  0CA5               	rrf	??___fltol+1,f
  4083  0A39  0CA4               	rrf	??___fltol,f
  4084  0A3A                     u4340:	
  4085  0A3A  3EFF               	addlw	-1
  4086  0A3B  1D03               	skipz
  4087  0A3C  2A35               	goto	u4345
  4088  0A3D  0824               	movf	??___fltol,w
  4089  0A3E  00A8               	movwf	??___fltol+4
  4090  0A3F  0828               	movf	??___fltol+4,w
  4091  0A40  00F5               	movwf	___fltol@sign1
  4092  0A41                     l2956:	
  4093  0A41  17A2               	bsf	___fltol@f1+2,7
  4094  0A42                     l2958:	
  4095  0A42  30FF               	movlw	255
  4096  0A43  05A0               	andwf	___fltol@f1,f
  4097  0A44  30FF               	movlw	255
  4098  0A45  05A1               	andwf	___fltol@f1+1,f
  4099  0A46  30FF               	movlw	255
  4100  0A47  05A2               	andwf	___fltol@f1+2,f
  4101  0A48  3000               	movlw	0
  4102  0A49  05A3               	andwf	___fltol@f1+3,f
  4103  0A4A                     l2960:	
  4104  0A4A  3096               	movlw	150
  4105  0A4B  02F6               	subwf	___fltol@exp1,f
  4106  0A4C                     l2962:	
  4107  0A4C  1FF6               	btfss	___fltol@exp1,7
  4108  0A4D  2A4F               	goto	u4351
  4109  0A4E  2A50               	goto	u4350
  4110  0A4F                     u4351:	
  4111  0A4F  2A6A               	goto	l2972
  4112  0A50                     u4350:	
  4113  0A50                     l2964:	
  4114  0A50  0876               	movf	___fltol@exp1,w
  4115  0A51  3A80               	xorlw	128
  4116  0A52  3E97               	addlw	151
  4117  0A53  1803               	skipnc
  4118  0A54  2A56               	goto	u4361
  4119  0A55  2A57               	goto	u4360
  4120  0A56                     u4361:	
  4121  0A56  2A58               	goto	l2970
  4122  0A57                     u4360:	
  4123  0A57  2A23               	goto	l2950
  4124  0A58                     l2970:	
  4125  0A58  3001               	movlw	1
  4126  0A59                     u4375:	
  4127  0A59  1003               	clrc
  4128  0A5A  0CA3               	rrf	___fltol@f1+3,f
  4129  0A5B  0CA2               	rrf	___fltol@f1+2,f
  4130  0A5C  0CA1               	rrf	___fltol@f1+1,f
  4131  0A5D  0CA0               	rrf	___fltol@f1,f
  4132  0A5E  3EFF               	addlw	-1
  4133  0A5F  1D03               	skipz
  4134  0A60  2A59               	goto	u4375
  4135  0A61  3001               	movlw	1
  4136  0A62  00A4               	movwf	??___fltol
  4137  0A63  0824               	movf	??___fltol,w
  4138  0A64  07F6               	addwf	___fltol@exp1,f
  4139  0A65  1D03               	btfss	3,2
  4140  0A66  2A68               	goto	u4381
  4141  0A67  2A69               	goto	u4380
  4142  0A68                     u4381:	
  4143  0A68  2A58               	goto	l2970
  4144  0A69                     u4380:	
  4145  0A69  2A81               	goto	l2980
  4146  0A6A                     l2972:	
  4147  0A6A  3020               	movlw	32
  4148  0A6B  0276               	subwf	___fltol@exp1,w
  4149  0A6C  1C03               	skipc
  4150  0A6D  2A6F               	goto	u4391
  4151  0A6E  2A70               	goto	u4390
  4152  0A6F                     u4391:	
  4153  0A6F  2A7C               	goto	l473
  4154  0A70                     u4390:	
  4155  0A70  2A23               	goto	l2950
  4156  0A71                     l2978:	
  4157  0A71  3001               	movlw	1
  4158  0A72  00A4               	movwf	??___fltol
  4159  0A73                     u4405:	
  4160  0A73  1003               	clrc
  4161  0A74  0DA0               	rlf	___fltol@f1,f
  4162  0A75  0DA1               	rlf	___fltol@f1+1,f
  4163  0A76  0DA2               	rlf	___fltol@f1+2,f
  4164  0A77  0DA3               	rlf	___fltol@f1+3,f
  4165  0A78  0BA4               	decfsz	??___fltol,f
  4166  0A79  2A73               	goto	u4405
  4167  0A7A  3001               	movlw	1
  4168  0A7B  02F6               	subwf	___fltol@exp1,f
  4169  0A7C                     l473:	
  4170  0A7C  0876               	movf	___fltol@exp1,w
  4171  0A7D  1D03               	btfss	3,2
  4172  0A7E  2A80               	goto	u4411
  4173  0A7F  2A81               	goto	u4410
  4174  0A80                     u4411:	
  4175  0A80  2A71               	goto	l2978
  4176  0A81                     u4410:	
  4177  0A81                     l2980:	
  4178  0A81  0875               	movf	___fltol@sign1,w
  4179  0A82  1903               	btfsc	3,2
  4180  0A83  2A85               	goto	u4421
  4181  0A84  2A86               	goto	u4420
  4182  0A85                     u4421:	
  4183  0A85  2A91               	goto	l476
  4184  0A86                     u4420:	
  4185  0A86                     l2982:	
  4186  0A86  09A0               	comf	___fltol@f1,f
  4187  0A87  09A1               	comf	___fltol@f1+1,f
  4188  0A88  09A2               	comf	___fltol@f1+2,f
  4189  0A89  09A3               	comf	___fltol@f1+3,f
  4190  0A8A  0AA0               	incf	___fltol@f1,f
  4191  0A8B  1903               	skipnz
  4192  0A8C  0AA1               	incf	___fltol@f1+1,f
  4193  0A8D  1903               	skipnz
  4194  0A8E  0AA2               	incf	___fltol@f1+2,f
  4195  0A8F  1903               	skipnz
  4196  0A90  0AA3               	incf	___fltol@f1+3,f
  4197  0A91                     l476:	
  4198  0A91                     l466:	
  4199  0A91  0008               	return
  4200  0A92                     __end_of___fltol:	
  4201                           
  4202                           	psect	text12
  4203  0859                     __ptext12:	
  4204 ;; *************** function ___flsub *****************
  4205 ;; Defined at:
  4206 ;;		line 242 in file "D:\Xc8\pic\sources\c90\common\sprcadd.c"
  4207 ;; Parameters:    Size  Location     Type
  4208 ;;  a               4   20[BANK0 ] long 
  4209 ;;  b               4   24[BANK0 ] long 
  4210 ;; Auto vars:     Size  Location     Type
  4211 ;;		None
  4212 ;; Return value:  Size  Location     Type
  4213 ;;                  4   20[BANK0 ] long 
  4214 ;; Registers used:
  4215 ;;		wreg, status,2, status,0, btemp+1, pclath, cstack
  4216 ;; Tracked objects:
  4217 ;;		On entry : 0/0
  4218 ;;		On exit  : 0/0
  4219 ;;		Unchanged: 0/0
  4220 ;; Data sizes:     COMMON   BANK0   BANK1   BANK3   BANK2
  4221 ;;      Params:         0       8       0       0       0
  4222 ;;      Locals:         0       0       0       0       0
  4223 ;;      Temps:          0       0       0       0       0
  4224 ;;      Totals:         0       8       0       0       0
  4225 ;;Total ram usage:        8 bytes
  4226 ;; Hardware stack levels used:    1
  4227 ;; Hardware stack levels required when called:    3
  4228 ;; This function calls:
  4229 ;;		___fladd
  4230 ;; This function is called by:
  4231 ;;		_FloatDec
  4232 ;; This function uses a non-reentrant model
  4233 ;;
  4234                           
  4235                           
  4236                           ;psect for function ___flsub
  4237  0859                     ___flsub:	
  4238  0859                     l2984:	
  4239                           ;incstack = 0
  4240                           ; Regs used in ___flsub: [wreg+status,2+status,0+btemp+1+pclath+cstack]
  4241                           
  4242  0859  3080               	movlw	128
  4243  085A  1283               	bcf	3,5	;RP0=0, select bank0
  4244  085B  1303               	bcf	3,6	;RP1=0, select bank0
  4245  085C  06B7               	xorwf	___flsub@a+3,f
  4246  085D                     l2986:	
  4247  085D  083B               	movf	___flsub@b+3,w
  4248  085E  00A3               	movwf	___fladd@b+3
  4249  085F  083A               	movf	___flsub@b+2,w
  4250  0860  00A2               	movwf	___fladd@b+2
  4251  0861  0839               	movf	___flsub@b+1,w
  4252  0862  00A1               	movwf	___fladd@b+1
  4253  0863  0838               	movf	___flsub@b,w
  4254  0864  00A0               	movwf	___fladd@b
  4255  0865  0837               	movf	___flsub@a+3,w
  4256  0866  00A7               	movwf	___fladd@a+3
  4257  0867  0836               	movf	___flsub@a+2,w
  4258  0868  00A6               	movwf	___fladd@a+2
  4259  0869  0835               	movf	___flsub@a+1,w
  4260  086A  00A5               	movwf	___fladd@a+1
  4261  086B  0834               	movf	___flsub@a,w
  4262  086C  00A4               	movwf	___fladd@a
  4263  086D  120A  118A  2392  120A  158A  	fcall	___fladd
  4264  0872  1283               	bcf	3,5	;RP0=0, select bank0
  4265  0873  1303               	bcf	3,6	;RP1=0, select bank0
  4266  0874  0823               	movf	?___fladd+3,w
  4267  0875  00B7               	movwf	?___flsub+3
  4268  0876  0822               	movf	?___fladd+2,w
  4269  0877  00B6               	movwf	?___flsub+2
  4270  0878  0821               	movf	?___fladd+1,w
  4271  0879  00B5               	movwf	?___flsub+1
  4272  087A  0820               	movf	?___fladd,w
  4273  087B  00B4               	movwf	?___flsub
  4274  087C                     l619:	
  4275  087C  0008               	return
  4276  087D                     __end_of___flsub:	
  4277                           
  4278                           	psect	text13
  4279  0392                     __ptext13:	
  4280 ;; *************** function ___fladd *****************
  4281 ;; Defined at:
  4282 ;;		line 10 in file "D:\Xc8\pic\sources\c90\common\sprcadd.c"
  4283 ;; Parameters:    Size  Location     Type
  4284 ;;  b               4    0[BANK0 ] long 
  4285 ;;  a               4    4[BANK0 ] long 
  4286 ;; Auto vars:     Size  Location     Type
  4287 ;;  grs             1   19[BANK0 ] unsigned char 
  4288 ;;  bexp            1   18[BANK0 ] unsigned char 
  4289 ;;  aexp            1   17[BANK0 ] unsigned char 
  4290 ;;  signs           1   16[BANK0 ] unsigned char 
  4291 ;; Return value:  Size  Location     Type
  4292 ;;                  4    0[BANK0 ] unsigned char 
  4293 ;; Registers used:
  4294 ;;		wreg, status,2, status,0, btemp+1
  4295 ;; Tracked objects:
  4296 ;;		On entry : 0/0
  4297 ;;		On exit  : 0/0
  4298 ;;		Unchanged: 0/0
  4299 ;; Data sizes:     COMMON   BANK0   BANK1   BANK3   BANK2
  4300 ;;      Params:         0       8       0       0       0
  4301 ;;      Locals:         0       4       0       0       0
  4302 ;;      Temps:          0       8       0       0       0
  4303 ;;      Totals:         0      20       0       0       0
  4304 ;;Total ram usage:       20 bytes
  4305 ;; Hardware stack levels used:    1
  4306 ;; Hardware stack levels required when called:    2
  4307 ;; This function calls:
  4308 ;;		Nothing
  4309 ;; This function is called by:
  4310 ;;		___flsub
  4311 ;; This function uses a non-reentrant model
  4312 ;;
  4313                           
  4314                           
  4315                           ;psect for function ___fladd
  4316  0392                     ___fladd:	
  4317  0392                     l2670:	
  4318                           ;incstack = 0
  4319                           ; Regs used in ___fladd: [wreg+status,2+status,0+btemp+1]
  4320                           
  4321  0392  1283               	bcf	3,5	;RP0=0, select bank0
  4322  0393  1303               	bcf	3,6	;RP1=0, select bank0
  4323  0394  0823               	movf	___fladd@b+3,w
  4324  0395  3980               	andlw	128
  4325  0396  00A8               	movwf	??___fladd
  4326  0397  0828               	movf	??___fladd,w
  4327  0398  00B0               	movwf	___fladd@signs
  4328  0399                     l2672:	
  4329  0399  0823               	movf	___fladd@b+3,w
  4330  039A  00A8               	movwf	??___fladd
  4331  039B  0728               	addwf	??___fladd,w
  4332  039C  00A9               	movwf	??___fladd+1
  4333  039D  0829               	movf	??___fladd+1,w
  4334  039E  00B2               	movwf	___fladd@bexp
  4335  039F                     l2674:	
  4336  039F  1FA2               	btfss	___fladd@b+2,7
  4337  03A0  2BA2               	goto	u3761
  4338  03A1  2BA3               	goto	u3760
  4339  03A2                     u3761:	
  4340  03A2  2BA4               	goto	l2678
  4341  03A3                     u3760:	
  4342  03A3                     l2676:	
  4343  03A3  1432               	bsf	___fladd@bexp,0
  4344  03A4                     l2678:	
  4345  03A4  0832               	movf	___fladd@bexp,w
  4346  03A5  1903               	btfsc	3,2
  4347  03A6  2BA8               	goto	u3771
  4348  03A7  2BA9               	goto	u3770
  4349  03A8                     u3771:	
  4350  03A8  2BB9               	goto	l2688
  4351  03A9                     u3770:	
  4352  03A9                     l2680:	
  4353  03A9  0A32               	incf	___fladd@bexp,w
  4354  03AA  1D03               	btfss	3,2
  4355  03AB  2BAD               	goto	u3781
  4356  03AC  2BAE               	goto	u3780
  4357  03AD                     u3781:	
  4358  03AD  2BB6               	goto	l2684
  4359  03AE                     u3780:	
  4360  03AE                     l2682:	
  4361  03AE  3000               	movlw	0
  4362  03AF  00A3               	movwf	___fladd@b+3
  4363  03B0  3000               	movlw	0
  4364  03B1  00A2               	movwf	___fladd@b+2
  4365  03B2  3000               	movlw	0
  4366  03B3  00A1               	movwf	___fladd@b+1
  4367  03B4  3000               	movlw	0
  4368  03B5  00A0               	movwf	___fladd@b
  4369  03B6                     l2684:	
  4370  03B6  17A2               	bsf	___fladd@b+2,7
  4371  03B7                     l2686:	
  4372  03B7  01A3               	clrf	___fladd@b+3
  4373  03B8  2BC1               	goto	l2690
  4374  03B9                     l2688:	
  4375  03B9  3000               	movlw	0
  4376  03BA  00A3               	movwf	___fladd@b+3
  4377  03BB  3000               	movlw	0
  4378  03BC  00A2               	movwf	___fladd@b+2
  4379  03BD  3000               	movlw	0
  4380  03BE  00A1               	movwf	___fladd@b+1
  4381  03BF  3000               	movlw	0
  4382  03C0  00A0               	movwf	___fladd@b
  4383  03C1                     l2690:	
  4384  03C1  0827               	movf	___fladd@a+3,w
  4385  03C2  3980               	andlw	128
  4386  03C3  00A8               	movwf	??___fladd
  4387  03C4  0828               	movf	??___fladd,w
  4388  03C5  00B1               	movwf	___fladd@aexp
  4389  03C6                     l2692:	
  4390  03C6  0831               	movf	___fladd@aexp,w
  4391  03C7  0630               	xorwf	___fladd@signs,w
  4392  03C8  1903               	skipnz
  4393  03C9  2BCB               	goto	u3791
  4394  03CA  2BCC               	goto	u3790
  4395  03CB                     u3791:	
  4396  03CB  2BCD               	goto	l2696
  4397  03CC                     u3790:	
  4398  03CC                     l2694:	
  4399  03CC  1730               	bsf	___fladd@signs,6
  4400  03CD                     l2696:	
  4401  03CD  0827               	movf	___fladd@a+3,w
  4402  03CE  00A8               	movwf	??___fladd
  4403  03CF  0728               	addwf	??___fladd,w
  4404  03D0  00A9               	movwf	??___fladd+1
  4405  03D1  0829               	movf	??___fladd+1,w
  4406  03D2  00B1               	movwf	___fladd@aexp
  4407  03D3                     l2698:	
  4408  03D3  1FA6               	btfss	___fladd@a+2,7
  4409  03D4  2BD6               	goto	u3801
  4410  03D5  2BD7               	goto	u3800
  4411  03D6                     u3801:	
  4412  03D6  2BD8               	goto	l2702
  4413  03D7                     u3800:	
  4414  03D7                     l2700:	
  4415  03D7  1431               	bsf	___fladd@aexp,0
  4416  03D8                     l2702:	
  4417  03D8  0831               	movf	___fladd@aexp,w
  4418  03D9  1903               	btfsc	3,2
  4419  03DA  2BDC               	goto	u3811
  4420  03DB  2BDD               	goto	u3810
  4421  03DC                     u3811:	
  4422  03DC  2BED               	goto	l2712
  4423  03DD                     u3810:	
  4424  03DD                     l2704:	
  4425  03DD  0A31               	incf	___fladd@aexp,w
  4426  03DE  1D03               	btfss	3,2
  4427  03DF  2BE1               	goto	u3821
  4428  03E0  2BE2               	goto	u3820
  4429  03E1                     u3821:	
  4430  03E1  2BEA               	goto	l2708
  4431  03E2                     u3820:	
  4432  03E2                     l2706:	
  4433  03E2  3000               	movlw	0
  4434  03E3  00A7               	movwf	___fladd@a+3
  4435  03E4  3000               	movlw	0
  4436  03E5  00A6               	movwf	___fladd@a+2
  4437  03E6  3000               	movlw	0
  4438  03E7  00A5               	movwf	___fladd@a+1
  4439  03E8  3000               	movlw	0
  4440  03E9  00A4               	movwf	___fladd@a
  4441  03EA                     l2708:	
  4442  03EA  17A6               	bsf	___fladd@a+2,7
  4443  03EB                     l2710:	
  4444  03EB  01A7               	clrf	___fladd@a+3
  4445  03EC  2BF5               	goto	l573
  4446  03ED                     l2712:	
  4447  03ED  3000               	movlw	0
  4448  03EE  00A7               	movwf	___fladd@a+3
  4449  03EF  3000               	movlw	0
  4450  03F0  00A6               	movwf	___fladd@a+2
  4451  03F1  3000               	movlw	0
  4452  03F2  00A5               	movwf	___fladd@a+1
  4453  03F3  3000               	movlw	0
  4454  03F4  00A4               	movwf	___fladd@a
  4455  03F5                     l573:	
  4456  03F5  0832               	movf	___fladd@bexp,w
  4457  03F6  0231               	subwf	___fladd@aexp,w
  4458  03F7  1803               	skipnc
  4459  03F8  2BFA               	goto	u3831
  4460  03F9  2BFB               	goto	u3830
  4461  03FA                     u3831:	
  4462  03FA  2C3F               	goto	l2748
  4463  03FB                     u3830:	
  4464  03FB                     l2714:	
  4465  03FB  1F30               	btfss	___fladd@signs,6
  4466  03FC  2BFE               	goto	u3841
  4467  03FD  2BFF               	goto	u3840
  4468  03FE                     u3841:	
  4469  03FE  2C03               	goto	l2718
  4470  03FF                     u3840:	
  4471  03FF                     l2716:	
  4472  03FF  3080               	movlw	128
  4473  0400  00A8               	movwf	??___fladd
  4474  0401  0828               	movf	??___fladd,w
  4475  0402  06B0               	xorwf	___fladd@signs,f
  4476  0403                     l2718:	
  4477  0403  0832               	movf	___fladd@bexp,w
  4478  0404  00A8               	movwf	??___fladd
  4479  0405  0828               	movf	??___fladd,w
  4480  0406  00B3               	movwf	___fladd@grs
  4481  0407                     l2720:	
  4482  0407  0831               	movf	___fladd@aexp,w
  4483  0408  00A8               	movwf	??___fladd
  4484  0409  0828               	movf	??___fladd,w
  4485  040A  00B2               	movwf	___fladd@bexp
  4486  040B                     l2722:	
  4487  040B  0833               	movf	___fladd@grs,w
  4488  040C  00A8               	movwf	??___fladd
  4489  040D  0828               	movf	??___fladd,w
  4490  040E  00B1               	movwf	___fladd@aexp
  4491  040F                     l2724:	
  4492  040F  0820               	movf	___fladd@b,w
  4493  0410  00A8               	movwf	??___fladd
  4494  0411  0828               	movf	??___fladd,w
  4495  0412  00B3               	movwf	___fladd@grs
  4496  0413                     l2726:	
  4497  0413  0824               	movf	___fladd@a,w
  4498  0414  00A8               	movwf	??___fladd
  4499  0415  0828               	movf	??___fladd,w
  4500  0416  00A0               	movwf	___fladd@b
  4501  0417                     l2728:	
  4502  0417  0833               	movf	___fladd@grs,w
  4503  0418  00A8               	movwf	??___fladd
  4504  0419  0828               	movf	??___fladd,w
  4505  041A  00A4               	movwf	___fladd@a
  4506  041B                     l2730:	
  4507  041B  0821               	movf	___fladd@b+1,w
  4508  041C  00A8               	movwf	??___fladd
  4509  041D  0828               	movf	??___fladd,w
  4510  041E  00B3               	movwf	___fladd@grs
  4511  041F                     l2732:	
  4512  041F  0825               	movf	___fladd@a+1,w
  4513  0420  00A8               	movwf	??___fladd
  4514  0421  0828               	movf	??___fladd,w
  4515  0422  00A1               	movwf	___fladd@b+1
  4516  0423                     l2734:	
  4517  0423  0833               	movf	___fladd@grs,w
  4518  0424  00A8               	movwf	??___fladd
  4519  0425  0828               	movf	??___fladd,w
  4520  0426  00A5               	movwf	___fladd@a+1
  4521  0427                     l2736:	
  4522  0427  0822               	movf	___fladd@b+2,w
  4523  0428  00A8               	movwf	??___fladd
  4524  0429  0828               	movf	??___fladd,w
  4525  042A  00B3               	movwf	___fladd@grs
  4526  042B                     l2738:	
  4527  042B  0826               	movf	___fladd@a+2,w
  4528  042C  00A8               	movwf	??___fladd
  4529  042D  0828               	movf	??___fladd,w
  4530  042E  00A2               	movwf	___fladd@b+2
  4531  042F                     l2740:	
  4532  042F  0833               	movf	___fladd@grs,w
  4533  0430  00A8               	movwf	??___fladd
  4534  0431  0828               	movf	??___fladd,w
  4535  0432  00A6               	movwf	___fladd@a+2
  4536  0433                     l2742:	
  4537  0433  0823               	movf	___fladd@b+3,w
  4538  0434  00A8               	movwf	??___fladd
  4539  0435  0828               	movf	??___fladd,w
  4540  0436  00B3               	movwf	___fladd@grs
  4541  0437                     l2744:	
  4542  0437  0827               	movf	___fladd@a+3,w
  4543  0438  00A8               	movwf	??___fladd
  4544  0439  0828               	movf	??___fladd,w
  4545  043A  00A3               	movwf	___fladd@b+3
  4546  043B                     l2746:	
  4547  043B  0833               	movf	___fladd@grs,w
  4548  043C  00A8               	movwf	??___fladd
  4549  043D  0828               	movf	??___fladd,w
  4550  043E  00A7               	movwf	___fladd@a+3
  4551  043F                     l2748:	
  4552  043F  01B3               	clrf	___fladd@grs
  4553  0440                     l2750:	
  4554  0440  0831               	movf	___fladd@aexp,w
  4555  0441  00A8               	movwf	??___fladd
  4556  0442  01A9               	clrf	??___fladd+1
  4557  0443  0829               	movf	??___fladd+1,w
  4558  0444  00AB               	movwf	??___fladd+3
  4559  0445  0832               	movf	___fladd@bexp,w
  4560  0446  0228               	subwf	??___fladd,w
  4561  0447  00AA               	movwf	??___fladd+2
  4562  0448  1C03               	skipc
  4563  0449  03AB               	decf	??___fladd+3,f
  4564  044A  082B               	movf	??___fladd+3,w
  4565  044B  3A80               	xorlw	128
  4566  044C  00FF               	movwf	btemp+1
  4567  044D  3080               	movlw	128
  4568  044E  027F               	subwf	btemp+1,w
  4569  044F  1D03               	skipz
  4570  0450  2C53               	goto	u3855
  4571  0451  301A               	movlw	26
  4572  0452  022A               	subwf	??___fladd+2,w
  4573  0453                     u3855:	
  4574  0453  1C03               	skipc
  4575  0454  2C56               	goto	u3851
  4576  0455  2C57               	goto	u3850
  4577  0456                     u3851:	
  4578  0456  2C94               	goto	l2766
  4579  0457                     u3850:	
  4580  0457                     l2752:	
  4581  0457  1283               	bcf	3,5	;RP0=0, select bank0
  4582  0458  1303               	bcf	3,6	;RP1=0, select bank0
  4583  0459  0823               	movf	___fladd@b+3,w
  4584  045A  0422               	iorwf	___fladd@b+2,w
  4585  045B  0421               	iorwf	___fladd@b+1,w
  4586  045C  0420               	iorwf	___fladd@b,w
  4587  045D  1D03               	skipz
  4588  045E  2C60               	goto	u3861
  4589  045F  2C62               	goto	u3860
  4590  0460                     u3861:	
  4591  0460  3001               	movlw	1
  4592  0461  2C63               	goto	u3870
  4593  0462                     u3860:	
  4594  0462  3000               	movlw	0
  4595  0463                     u3870:	
  4596  0463  00A8               	movwf	??___fladd
  4597  0464  0828               	movf	??___fladd,w
  4598  0465  00B3               	movwf	___fladd@grs
  4599  0466  3000               	movlw	0
  4600  0467  00A3               	movwf	___fladd@b+3
  4601  0468  3000               	movlw	0
  4602  0469  00A2               	movwf	___fladd@b+2
  4603  046A  3000               	movlw	0
  4604  046B  00A1               	movwf	___fladd@b+1
  4605  046C  3000               	movlw	0
  4606  046D  00A0               	movwf	___fladd@b
  4607  046E  0831               	movf	___fladd@aexp,w
  4608  046F  00A8               	movwf	??___fladd
  4609  0470  0828               	movf	??___fladd,w
  4610  0471  00B2               	movwf	___fladd@bexp
  4611  0472  2C9C               	goto	l577
  4612  0473                     l579:	
  4613  0473  1C33               	btfss	___fladd@grs,0
  4614  0474  2C76               	goto	u3881
  4615  0475  2C77               	goto	u3880
  4616  0476                     u3881:	
  4617  0476  2C80               	goto	l2756
  4618  0477                     u3880:	
  4619  0477                     l2754:	
  4620  0477  0833               	movf	___fladd@grs,w
  4621  0478  00A8               	movwf	??___fladd
  4622  0479  1003               	clrc
  4623  047A  0C28               	rrf	??___fladd,w
  4624  047B  3801               	iorlw	1
  4625  047C  00A9               	movwf	??___fladd+1
  4626  047D  0829               	movf	??___fladd+1,w
  4627  047E  00B3               	movwf	___fladd@grs
  4628  047F  2C82               	goto	l2758
  4629  0480                     l2756:	
  4630  0480  1003               	clrc
  4631  0481  0CB3               	rrf	___fladd@grs,f
  4632  0482                     l2758:	
  4633  0482  1C20               	btfss	___fladd@b,0
  4634  0483  2C85               	goto	u3891
  4635  0484  2C86               	goto	u3890
  4636  0485                     u3891:	
  4637  0485  2C87               	goto	l2762
  4638  0486                     u3890:	
  4639  0486                     l2760:	
  4640  0486  17B3               	bsf	___fladd@grs,7
  4641  0487                     l2762:	
  4642  0487  3001               	movlw	1
  4643  0488  00A8               	movwf	??___fladd
  4644  0489                     u3905:	
  4645  0489  0D23               	rlf	___fladd@b+3,w
  4646  048A  0CA3               	rrf	___fladd@b+3,f
  4647  048B  0CA2               	rrf	___fladd@b+2,f
  4648  048C  0CA1               	rrf	___fladd@b+1,f
  4649  048D  0CA0               	rrf	___fladd@b,f
  4650  048E  0BA8               	decfsz	??___fladd& (0+127),f
  4651  048F  2C89               	goto	u3905
  4652  0490                     l2764:	
  4653  0490  3001               	movlw	1
  4654  0491  00A8               	movwf	??___fladd
  4655  0492  0828               	movf	??___fladd,w
  4656  0493  07B2               	addwf	___fladd@bexp,f
  4657  0494                     l2766:	
  4658  0494  1283               	bcf	3,5	;RP0=0, select bank0
  4659  0495  1303               	bcf	3,6	;RP1=0, select bank0
  4660  0496  0831               	movf	___fladd@aexp,w
  4661  0497  0232               	subwf	___fladd@bexp,w
  4662  0498  1C03               	skipc
  4663  0499  2C9B               	goto	u3911
  4664  049A  2C9C               	goto	u3910
  4665  049B                     u3911:	
  4666  049B  2C73               	goto	l579
  4667  049C                     u3910:	
  4668  049C                     l577:	
  4669  049C  1B30               	btfsc	___fladd@signs,6
  4670  049D  2C9F               	goto	u3921
  4671  049E  2CA0               	goto	u3920
  4672  049F                     u3921:	
  4673  049F  2CEB               	goto	l2792
  4674  04A0                     u3920:	
  4675  04A0                     l2768:	
  4676  04A0  0832               	movf	___fladd@bexp,w
  4677  04A1  1D03               	btfss	3,2
  4678  04A2  2CA4               	goto	u3931
  4679  04A3  2CA5               	goto	u3930
  4680  04A4                     u3931:	
  4681  04A4  2CAE               	goto	l2774
  4682  04A5                     u3930:	
  4683  04A5                     l2770:	
  4684  04A5  3000               	movlw	0
  4685  04A6  00A3               	movwf	?___fladd+3
  4686  04A7  3000               	movlw	0
  4687  04A8  00A2               	movwf	?___fladd+2
  4688  04A9  3000               	movlw	0
  4689  04AA  00A1               	movwf	?___fladd+1
  4690  04AB  3000               	movlw	0
  4691  04AC  00A0               	movwf	?___fladd
  4692  04AD  2E19               	goto	l586
  4693  04AE                     l2774:	
  4694  04AE  0824               	movf	___fladd@a,w
  4695  04AF  07A0               	addwf	___fladd@b,f
  4696  04B0  0825               	movf	___fladd@a+1,w
  4697  04B1  1103               	clrz
  4698  04B2  1803               	skipnc
  4699  04B3  3E01               	addlw	1
  4700  04B4  1903               	skipnz
  4701  04B5  2CB7               	goto	u3941
  4702  04B6  07A1               	addwf	___fladd@b+1,f
  4703  04B7                     u3941:	
  4704  04B7  0826               	movf	___fladd@a+2,w
  4705  04B8  1103               	clrz
  4706  04B9  1803               	skipnc
  4707  04BA  3E01               	addlw	1
  4708  04BB  1903               	skipnz
  4709  04BC  2CBE               	goto	u3942
  4710  04BD  07A2               	addwf	___fladd@b+2,f
  4711  04BE                     u3942:	
  4712  04BE  0827               	movf	___fladd@a+3,w
  4713  04BF  1103               	clrz
  4714  04C0  1803               	skipnc
  4715  04C1  3E01               	addlw	1
  4716  04C2  1903               	skipnz
  4717  04C3  2CC5               	goto	u3943
  4718  04C4  07A3               	addwf	___fladd@b+3,f
  4719  04C5                     u3943:	
  4720  04C5                     l2776:	
  4721  04C5  1C23               	btfss	___fladd@b+3,0
  4722  04C6  2CC8               	goto	u3951
  4723  04C7  2CC9               	goto	u3950
  4724  04C8                     u3951:	
  4725  04C8  2D9F               	goto	l2826
  4726  04C9                     u3950:	
  4727  04C9                     l2778:	
  4728  04C9  1C33               	btfss	___fladd@grs,0
  4729  04CA  2CCC               	goto	u3961
  4730  04CB  2CCD               	goto	u3960
  4731  04CC                     u3961:	
  4732  04CC  2CD6               	goto	l2782
  4733  04CD                     u3960:	
  4734  04CD                     l2780:	
  4735  04CD  0833               	movf	___fladd@grs,w
  4736  04CE  00A8               	movwf	??___fladd
  4737  04CF  1003               	clrc
  4738  04D0  0C28               	rrf	??___fladd,w
  4739  04D1  3801               	iorlw	1
  4740  04D2  00A9               	movwf	??___fladd+1
  4741  04D3  0829               	movf	??___fladd+1,w
  4742  04D4  00B3               	movwf	___fladd@grs
  4743  04D5  2CD8               	goto	l2784
  4744  04D6                     l2782:	
  4745  04D6  1003               	clrc
  4746  04D7  0CB3               	rrf	___fladd@grs,f
  4747  04D8                     l2784:	
  4748  04D8  1C20               	btfss	___fladd@b,0
  4749  04D9  2CDB               	goto	u3971
  4750  04DA  2CDC               	goto	u3970
  4751  04DB                     u3971:	
  4752  04DB  2CDD               	goto	l2788
  4753  04DC                     u3970:	
  4754  04DC                     l2786:	
  4755  04DC  17B3               	bsf	___fladd@grs,7
  4756  04DD                     l2788:	
  4757  04DD  3001               	movlw	1
  4758  04DE  00A8               	movwf	??___fladd
  4759  04DF                     u3985:	
  4760  04DF  0D23               	rlf	___fladd@b+3,w
  4761  04E0  0CA3               	rrf	___fladd@b+3,f
  4762  04E1  0CA2               	rrf	___fladd@b+2,f
  4763  04E2  0CA1               	rrf	___fladd@b+1,f
  4764  04E3  0CA0               	rrf	___fladd@b,f
  4765  04E4  0BA8               	decfsz	??___fladd& (0+127),f
  4766  04E5  2CDF               	goto	u3985
  4767  04E6                     l2790:	
  4768  04E6  3001               	movlw	1
  4769  04E7  00A8               	movwf	??___fladd
  4770  04E8  0828               	movf	??___fladd,w
  4771  04E9  07B2               	addwf	___fladd@bexp,f
  4772  04EA  2D9F               	goto	l2826
  4773  04EB                     l2792:	
  4774  04EB  0823               	movf	___fladd@b+3,w
  4775  04EC  3A80               	xorlw	128
  4776  04ED  00FF               	movwf	btemp+1
  4777  04EE  0827               	movf	___fladd@a+3,w
  4778  04EF  3A80               	xorlw	128
  4779  04F0  027F               	subwf	btemp+1,w
  4780  04F1  1D03               	skipz
  4781  04F2  2CFD               	goto	u3993
  4782  04F3  0826               	movf	___fladd@a+2,w
  4783  04F4  0222               	subwf	___fladd@b+2,w
  4784  04F5  1D03               	skipz
  4785  04F6  2CFD               	goto	u3993
  4786  04F7  0825               	movf	___fladd@a+1,w
  4787  04F8  0221               	subwf	___fladd@b+1,w
  4788  04F9  1D03               	skipz
  4789  04FA  2CFD               	goto	u3993
  4790  04FB  0824               	movf	___fladd@a,w
  4791  04FC  0220               	subwf	___fladd@b,w
  4792  04FD                     u3993:	
  4793  04FD  1803               	skipnc
  4794  04FE  2D00               	goto	u3991
  4795  04FF  2D01               	goto	u3990
  4796  0500                     u3991:	
  4797  0500  2D59               	goto	l2802
  4798  0501                     u3990:	
  4799  0501                     l2794:	
  4800  0501  30FF               	movlw	255
  4801  0502  00A8               	movwf	??___fladd
  4802  0503  30FF               	movlw	255
  4803  0504  00A9               	movwf	??___fladd+1
  4804  0505  30FF               	movlw	255
  4805  0506  00AA               	movwf	??___fladd+2
  4806  0507  30FF               	movlw	255
  4807  0508  00AB               	movwf	??___fladd+3
  4808  0509  0824               	movf	___fladd@a,w
  4809  050A  00AC               	movwf	??___fladd+4
  4810  050B  0825               	movf	___fladd@a+1,w
  4811  050C  00AD               	movwf	??___fladd+5
  4812  050D  0826               	movf	___fladd@a+2,w
  4813  050E  00AE               	movwf	??___fladd+6
  4814  050F  0827               	movf	___fladd@a+3,w
  4815  0510  00AF               	movwf	??___fladd+7
  4816  0511  0820               	movf	___fladd@b,w
  4817  0512  02AC               	subwf	??___fladd+4,f
  4818  0513  0821               	movf	___fladd@b+1,w
  4819  0514  1C03               	skipc
  4820  0515  0F21               	incfsz	___fladd@b+1,w
  4821  0516  2D18               	goto	u4001
  4822  0517  2D19               	goto	u4002
  4823  0518                     u4001:	
  4824  0518  02AD               	subwf	??___fladd+5,f
  4825  0519                     u4002:	
  4826  0519  0822               	movf	___fladd@b+2,w
  4827  051A  1C03               	skipc
  4828  051B  0F22               	incfsz	___fladd@b+2,w
  4829  051C  2D1E               	goto	u4003
  4830  051D  2D1F               	goto	u4004
  4831  051E                     u4003:	
  4832  051E  02AE               	subwf	??___fladd+6,f
  4833  051F                     u4004:	
  4834  051F  0823               	movf	___fladd@b+3,w
  4835  0520  1C03               	skipc
  4836  0521  0F23               	incfsz	___fladd@b+3,w
  4837  0522  2D24               	goto	u4005
  4838  0523  2D25               	goto	u4006
  4839  0524                     u4005:	
  4840  0524  02AF               	subwf	??___fladd+7,f
  4841  0525                     u4006:	
  4842  0525  082C               	movf	??___fladd+4,w
  4843  0526  07A8               	addwf	??___fladd,f
  4844  0527  082D               	movf	??___fladd+5,w
  4845  0528  1803               	skipnc
  4846  0529  0F2D               	incfsz	??___fladd+5,w
  4847  052A  2D2C               	goto	u4010
  4848  052B  2D2D               	goto	u4011
  4849  052C                     u4010:	
  4850  052C  07A9               	addwf	??___fladd+1,f
  4851  052D                     u4011:	
  4852  052D  082E               	movf	??___fladd+6,w
  4853  052E  1803               	skipnc
  4854  052F  0F2E               	incfsz	??___fladd+6,w
  4855  0530  2D32               	goto	u4012
  4856  0531  2D33               	goto	u4013
  4857  0532                     u4012:	
  4858  0532  07AA               	addwf	??___fladd+2,f
  4859  0533                     u4013:	
  4860  0533  082F               	movf	??___fladd+7,w
  4861  0534  1803               	skipnc
  4862  0535  0A2F               	incf	??___fladd+7,w
  4863  0536  07AB               	addwf	??___fladd+3,f
  4864  0537  082B               	movf	??___fladd+3,w
  4865  0538  00A3               	movwf	___fladd@b+3
  4866  0539  082A               	movf	??___fladd+2,w
  4867  053A  00A2               	movwf	___fladd@b+2
  4868  053B  0829               	movf	??___fladd+1,w
  4869  053C  00A1               	movwf	___fladd@b+1
  4870  053D  0828               	movf	??___fladd,w
  4871  053E  00A0               	movwf	___fladd@b
  4872  053F                     l2796:	
  4873  053F  3080               	movlw	128
  4874  0540  00A8               	movwf	??___fladd
  4875  0541  0828               	movf	??___fladd,w
  4876  0542  06B0               	xorwf	___fladd@signs,f
  4877  0543  09B3               	comf	___fladd@grs,f
  4878  0544  0AB3               	incf	___fladd@grs,f
  4879  0545                     l2798:	
  4880  0545  0833               	movf	___fladd@grs,w
  4881  0546  1D03               	btfss	3,2
  4882  0547  2D49               	goto	u4021
  4883  0548  2D4A               	goto	u4020
  4884  0549                     u4021:	
  4885  0549  2D67               	goto	l594
  4886  054A                     u4020:	
  4887  054A                     l2800:	
  4888  054A  3001               	movlw	1
  4889  054B  07A0               	addwf	___fladd@b,f
  4890  054C  3000               	movlw	0
  4891  054D  1803               	skipnc
  4892  054E  3001               	movlw	1
  4893  054F  07A1               	addwf	___fladd@b+1,f
  4894  0550  3000               	movlw	0
  4895  0551  1803               	skipnc
  4896  0552  3001               	movlw	1
  4897  0553  07A2               	addwf	___fladd@b+2,f
  4898  0554  3000               	movlw	0
  4899  0555  1803               	skipnc
  4900  0556  3001               	movlw	1
  4901  0557  07A3               	addwf	___fladd@b+3,f
  4902  0558  2D67               	goto	l594
  4903  0559                     l2802:	
  4904  0559  0824               	movf	___fladd@a,w
  4905  055A  02A0               	subwf	___fladd@b,f
  4906  055B  0825               	movf	___fladd@a+1,w
  4907  055C  1C03               	skipc
  4908  055D  0F25               	incfsz	___fladd@a+1,w
  4909  055E  02A1               	subwf	___fladd@b+1,f
  4910  055F  0826               	movf	___fladd@a+2,w
  4911  0560  1C03               	skipc
  4912  0561  0F26               	incfsz	___fladd@a+2,w
  4913  0562  02A2               	subwf	___fladd@b+2,f
  4914  0563  0827               	movf	___fladd@a+3,w
  4915  0564  1C03               	skipc
  4916  0565  0F27               	incfsz	___fladd@a+3,w
  4917  0566  02A3               	subwf	___fladd@b+3,f
  4918  0567                     l594:	
  4919  0567  0823               	movf	___fladd@b+3,w
  4920  0568  0422               	iorwf	___fladd@b+2,w
  4921  0569  0421               	iorwf	___fladd@b+1,w
  4922  056A  0420               	iorwf	___fladd@b,w
  4923  056B  1D03               	skipz
  4924  056C  2D6E               	goto	u4031
  4925  056D  2D6F               	goto	u4030
  4926  056E                     u4031:	
  4927  056E  2D9B               	goto	l2824
  4928  056F                     u4030:	
  4929  056F                     l2804:	
  4930  056F  0833               	movf	___fladd@grs,w
  4931  0570  1D03               	btfss	3,2
  4932  0571  2D73               	goto	u4041
  4933  0572  2D74               	goto	u4040
  4934  0573                     u4041:	
  4935  0573  2D9B               	goto	l2824
  4936  0574                     u4040:	
  4937  0574                     l2806:	
  4938  0574  3000               	movlw	0
  4939  0575  00A3               	movwf	?___fladd+3
  4940  0576  3000               	movlw	0
  4941  0577  00A2               	movwf	?___fladd+2
  4942  0578  3000               	movlw	0
  4943  0579  00A1               	movwf	?___fladd+1
  4944  057A  3000               	movlw	0
  4945  057B  00A0               	movwf	?___fladd
  4946  057C  2E19               	goto	l586
  4947  057D                     l2810:	
  4948  057D  3001               	movlw	1
  4949  057E  00A8               	movwf	??___fladd
  4950  057F                     u4055:	
  4951  057F  1003               	clrc
  4952  0580  0DA0               	rlf	___fladd@b,f
  4953  0581  0DA1               	rlf	___fladd@b+1,f
  4954  0582  0DA2               	rlf	___fladd@b+2,f
  4955  0583  0DA3               	rlf	___fladd@b+3,f
  4956  0584  0BA8               	decfsz	??___fladd,f
  4957  0585  2D7F               	goto	u4055
  4958  0586                     l2812:	
  4959  0586  1FB3               	btfss	___fladd@grs,7
  4960  0587  2D89               	goto	u4061
  4961  0588  2D8A               	goto	u4060
  4962  0589                     u4061:	
  4963  0589  2D8B               	goto	l598
  4964  058A                     u4060:	
  4965  058A                     l2814:	
  4966  058A  1420               	bsf	___fladd@b,0
  4967  058B                     l598:	
  4968  058B  1C33               	btfss	___fladd@grs,0
  4969  058C  2D8E               	goto	u4071
  4970  058D  2D8F               	goto	u4070
  4971  058E                     u4071:	
  4972  058E  2D92               	goto	l2818
  4973  058F                     u4070:	
  4974  058F                     l2816:	
  4975  058F  1403               	setc
  4976  0590  0DB3               	rlf	___fladd@grs,f
  4977  0591  2D94               	goto	l2820
  4978  0592                     l2818:	
  4979  0592  1003               	clrc
  4980  0593  0DB3               	rlf	___fladd@grs,f
  4981  0594                     l2820:	
  4982  0594  0832               	movf	___fladd@bexp,w
  4983  0595  1903               	btfsc	3,2
  4984  0596  2D98               	goto	u4081
  4985  0597  2D99               	goto	u4080
  4986  0598                     u4081:	
  4987  0598  2D9B               	goto	l2824
  4988  0599                     u4080:	
  4989  0599                     l2822:	
  4990  0599  3001               	movlw	1
  4991  059A  02B2               	subwf	___fladd@bexp,f
  4992  059B                     l2824:	
  4993  059B  1FA2               	btfss	___fladd@b+2,7
  4994  059C  2D9E               	goto	u4091
  4995  059D  2D9F               	goto	u4090
  4996  059E                     u4091:	
  4997  059E  2D7D               	goto	l2810
  4998  059F                     u4090:	
  4999  059F                     l2826:	
  5000  059F  01B1               	clrf	___fladd@aexp
  5001  05A0                     l2828:	
  5002  05A0  1FB3               	btfss	___fladd@grs,7
  5003  05A1  2DA3               	goto	u4101
  5004  05A2  2DA4               	goto	u4100
  5005  05A3                     u4101:	
  5006  05A3  2DB2               	goto	l2836
  5007  05A4                     u4100:	
  5008  05A4                     l2830:	
  5009  05A4  0833               	movf	___fladd@grs,w
  5010  05A5  397F               	andlw	127
  5011  05A6  1903               	btfsc	3,2
  5012  05A7  2DA9               	goto	u4111
  5013  05A8  2DAA               	goto	u4110
  5014  05A9                     u4111:	
  5015  05A9  2DAD               	goto	l604
  5016  05AA                     u4110:	
  5017  05AA                     l2832:	
  5018  05AA  01B1               	clrf	___fladd@aexp
  5019  05AB  0AB1               	incf	___fladd@aexp,f
  5020  05AC  2DB2               	goto	l2836
  5021  05AD                     l604:	
  5022  05AD  1C20               	btfss	___fladd@b,0
  5023  05AE  2DB0               	goto	u4121
  5024  05AF  2DB1               	goto	u4120
  5025  05B0                     u4121:	
  5026  05B0  2DB2               	goto	l2836
  5027  05B1                     u4120:	
  5028  05B1  2DAA               	goto	l2832
  5029  05B2                     l2836:	
  5030  05B2  0831               	movf	___fladd@aexp,w
  5031  05B3  1903               	btfsc	3,2
  5032  05B4  2DB6               	goto	u4131
  5033  05B5  2DB7               	goto	u4130
  5034  05B6                     u4131:	
  5035  05B6  2DEB               	goto	l607
  5036  05B7                     u4130:	
  5037  05B7                     l2838:	
  5038  05B7  3001               	movlw	1
  5039  05B8  07A0               	addwf	___fladd@b,f
  5040  05B9  3000               	movlw	0
  5041  05BA  1803               	skipnc
  5042  05BB  3001               	movlw	1
  5043  05BC  07A1               	addwf	___fladd@b+1,f
  5044  05BD  3000               	movlw	0
  5045  05BE  1803               	skipnc
  5046  05BF  3001               	movlw	1
  5047  05C0  07A2               	addwf	___fladd@b+2,f
  5048  05C1  3000               	movlw	0
  5049  05C2  1803               	skipnc
  5050  05C3  3001               	movlw	1
  5051  05C4  07A3               	addwf	___fladd@b+3,f
  5052  05C5                     l2840:	
  5053  05C5  1C23               	btfss	___fladd@b+3,0
  5054  05C6  2DC8               	goto	u4141
  5055  05C7  2DC9               	goto	u4140
  5056  05C8                     u4141:	
  5057  05C8  2DEB               	goto	l607
  5058  05C9                     u4140:	
  5059  05C9                     l2842:	
  5060  05C9  0820               	movf	___fladd@b,w
  5061  05CA  00A8               	movwf	??___fladd
  5062  05CB  0821               	movf	___fladd@b+1,w
  5063  05CC  00A9               	movwf	??___fladd+1
  5064  05CD  0822               	movf	___fladd@b+2,w
  5065  05CE  00AA               	movwf	??___fladd+2
  5066  05CF  0823               	movf	___fladd@b+3,w
  5067  05D0  00AB               	movwf	??___fladd+3
  5068  05D1  3001               	movlw	1
  5069  05D2  00AC               	movwf	??___fladd+4
  5070  05D3                     u4155:	
  5071  05D3  0D2B               	rlf	??___fladd+3,w
  5072  05D4  0CAB               	rrf	??___fladd+3,f
  5073  05D5  0CAA               	rrf	??___fladd+2,f
  5074  05D6  0CA9               	rrf	??___fladd+1,f
  5075  05D7  0CA8               	rrf	??___fladd,f
  5076  05D8                     u4150:	
  5077  05D8  0BAC               	decfsz	??___fladd+4,f
  5078  05D9  2DD3               	goto	u4155
  5079  05DA  082B               	movf	??___fladd+3,w
  5080  05DB  00A3               	movwf	___fladd@b+3
  5081  05DC  082A               	movf	??___fladd+2,w
  5082  05DD  00A2               	movwf	___fladd@b+2
  5083  05DE  0829               	movf	??___fladd+1,w
  5084  05DF  00A1               	movwf	___fladd@b+1
  5085  05E0  0828               	movf	??___fladd,w
  5086  05E1  00A0               	movwf	___fladd@b
  5087  05E2  0A32               	incf	___fladd@bexp,w
  5088  05E3  1903               	btfsc	3,2
  5089  05E4  2DE6               	goto	u4161
  5090  05E5  2DE7               	goto	u4160
  5091  05E6                     u4161:	
  5092  05E6  2DEB               	goto	l607
  5093  05E7                     u4160:	
  5094  05E7                     l2844:	
  5095  05E7  3001               	movlw	1
  5096  05E8  00A8               	movwf	??___fladd
  5097  05E9  0828               	movf	??___fladd,w
  5098  05EA  07B2               	addwf	___fladd@bexp,f
  5099  05EB                     l607:	
  5100  05EB  0A32               	incf	___fladd@bexp,w
  5101  05EC  1903               	btfsc	3,2
  5102  05ED  2DEF               	goto	u4171
  5103  05EE  2DF0               	goto	u4170
  5104  05EF                     u4171:	
  5105  05EF  2DF5               	goto	l2848
  5106  05F0                     u4170:	
  5107  05F0                     l2846:	
  5108  05F0  0832               	movf	___fladd@bexp,w
  5109  05F1  1D03               	btfss	3,2
  5110  05F2  2DF4               	goto	u4181
  5111  05F3  2DF5               	goto	u4180
  5112  05F4                     u4181:	
  5113  05F4  2E03               	goto	l2854
  5114  05F5                     u4180:	
  5115  05F5                     l2848:	
  5116  05F5  3000               	movlw	0
  5117  05F6  00A3               	movwf	___fladd@b+3
  5118  05F7  3000               	movlw	0
  5119  05F8  00A2               	movwf	___fladd@b+2
  5120  05F9  3000               	movlw	0
  5121  05FA  00A1               	movwf	___fladd@b+1
  5122  05FB  3000               	movlw	0
  5123  05FC  00A0               	movwf	___fladd@b
  5124  05FD                     l2850:	
  5125  05FD  0832               	movf	___fladd@bexp,w
  5126  05FE  1D03               	btfss	3,2
  5127  05FF  2E01               	goto	u4191
  5128  0600  2E02               	goto	u4190
  5129  0601                     u4191:	
  5130  0601  2E03               	goto	l2854
  5131  0602                     u4190:	
  5132  0602                     l2852:	
  5133  0602  01B0               	clrf	___fladd@signs
  5134  0603                     l2854:	
  5135  0603  1C32               	btfss	___fladd@bexp,0
  5136  0604  2E06               	goto	u4201
  5137  0605  2E07               	goto	u4200
  5138  0606                     u4201:	
  5139  0606  2E09               	goto	l2858
  5140  0607                     u4200:	
  5141  0607                     l2856:	
  5142  0607  17A2               	bsf	___fladd@b+2,7
  5143  0608  2E0D               	goto	l615
  5144  0609                     l2858:	
  5145  0609  307F               	movlw	127
  5146  060A  00A8               	movwf	??___fladd
  5147  060B  0828               	movf	??___fladd,w
  5148  060C  05A2               	andwf	___fladd@b+2,f
  5149  060D                     l615:	
  5150  060D  0832               	movf	___fladd@bexp,w
  5151  060E  00A8               	movwf	??___fladd
  5152  060F  1003               	clrc
  5153  0610  0C28               	rrf	??___fladd,w
  5154  0611  00A9               	movwf	??___fladd+1
  5155  0612  0829               	movf	??___fladd+1,w
  5156  0613  00A3               	movwf	___fladd@b+3
  5157  0614                     l2860:	
  5158  0614  1FB0               	btfss	___fladd@signs,7
  5159  0615  2E17               	goto	u4211
  5160  0616  2E18               	goto	u4210
  5161  0617                     u4211:	
  5162  0617  2E19               	goto	l616
  5163  0618                     u4210:	
  5164  0618                     l2862:	
  5165  0618  17A3               	bsf	___fladd@b+3,7
  5166  0619                     l616:	
  5167  0619                     l586:	
  5168  0619  0008               	return
  5169  061A                     __end_of___fladd:	
  5170                           
  5171                           	psect	text14
  5172  0031                     __ptext14:	
  5173 ;; *************** function ___flmul *****************
  5174 ;; Defined at:
  5175 ;;		line 8 in file "D:\Xc8\pic\sources\c90\common\sprcmul.c"
  5176 ;; Parameters:    Size  Location     Type
  5177 ;;  b               4   14[BANK0 ] unsigned char 
  5178 ;;  a               4   18[BANK0 ] unsigned char 
  5179 ;; Auto vars:     Size  Location     Type
  5180 ;;  prod            4   34[BANK0 ] struct .
  5181 ;;  grs             4   29[BANK0 ] unsigned long 
  5182 ;;  temp            2   38[BANK0 ] struct .
  5183 ;;  bexp            1   33[BANK0 ] unsigned char 
  5184 ;;  aexp            1   28[BANK0 ] unsigned char 
  5185 ;;  sign            1   27[BANK0 ] unsigned char 
  5186 ;; Return value:  Size  Location     Type
  5187 ;;                  4   14[BANK0 ] unsigned char 
  5188 ;; Registers used:
  5189 ;;		wreg, status,2, status,0, btemp+1, pclath, cstack
  5190 ;; Tracked objects:
  5191 ;;		On entry : 0/0
  5192 ;;		On exit  : 0/0
  5193 ;;		Unchanged: 0/0
  5194 ;; Data sizes:     COMMON   BANK0   BANK1   BANK3   BANK2
  5195 ;;      Params:         0       8       0       0       0
  5196 ;;      Locals:         0      13       0       0       0
  5197 ;;      Temps:          0       5       0       0       0
  5198 ;;      Totals:         0      26       0       0       0
  5199 ;;Total ram usage:       26 bytes
  5200 ;; Hardware stack levels used:    1
  5201 ;; Hardware stack levels required when called:    3
  5202 ;; This function calls:
  5203 ;;		__Umul8_16
  5204 ;; This function is called by:
  5205 ;;		_main
  5206 ;;		_FloatDec
  5207 ;; This function uses a non-reentrant model
  5208 ;;
  5209                           
  5210                           
  5211                           ;psect for function ___flmul
  5212  0031                     ___flmul:	
  5213  0031                     l2990:	
  5214                           ;incstack = 0
  5215                           ; Regs used in ___flmul: [wreg+status,2+status,0+btemp+1+pclath+cstack]
  5216                           
  5217  0031  1283               	bcf	3,5	;RP0=0, select bank0
  5218  0032  1303               	bcf	3,6	;RP1=0, select bank0
  5219  0033  0831               	movf	___flmul@b+3,w
  5220  0034  3980               	andlw	128
  5221  0035  00B6               	movwf	??___flmul
  5222  0036  0836               	movf	??___flmul,w
  5223  0037  00BB               	movwf	___flmul@sign
  5224  0038                     l2992:	
  5225  0038  0831               	movf	___flmul@b+3,w
  5226  0039  00B6               	movwf	??___flmul
  5227  003A  0736               	addwf	??___flmul,w
  5228  003B  00B7               	movwf	??___flmul+1
  5229  003C  0837               	movf	??___flmul+1,w
  5230  003D  00C1               	movwf	___flmul@bexp
  5231  003E                     l2994:	
  5232  003E  1FB0               	btfss	___flmul@b+2,7
  5233  003F  2841               	goto	u4431
  5234  0040  2842               	goto	u4430
  5235  0041                     u4431:	
  5236  0041  2843               	goto	l2998
  5237  0042                     u4430:	
  5238  0042                     l2996:	
  5239  0042  1441               	bsf	___flmul@bexp,0
  5240  0043                     l2998:	
  5241  0043  0841               	movf	___flmul@bexp,w
  5242  0044  1903               	btfsc	3,2
  5243  0045  2847               	goto	u4441
  5244  0046  2848               	goto	u4440
  5245  0047                     u4441:	
  5246  0047  2857               	goto	l3006
  5247  0048                     u4440:	
  5248  0048                     l3000:	
  5249  0048  0A41               	incf	___flmul@bexp,w
  5250  0049  1D03               	btfss	3,2
  5251  004A  284C               	goto	u4451
  5252  004B  284D               	goto	u4450
  5253  004C                     u4451:	
  5254  004C  2855               	goto	l3004
  5255  004D                     u4450:	
  5256  004D                     l3002:	
  5257  004D  3000               	movlw	0
  5258  004E  00B1               	movwf	___flmul@b+3
  5259  004F  3000               	movlw	0
  5260  0050  00B0               	movwf	___flmul@b+2
  5261  0051  3000               	movlw	0
  5262  0052  00AF               	movwf	___flmul@b+1
  5263  0053  3000               	movlw	0
  5264  0054  00AE               	movwf	___flmul@b
  5265  0055                     l3004:	
  5266  0055  17B0               	bsf	___flmul@b+2,7
  5267  0056  285F               	goto	l3008
  5268  0057                     l3006:	
  5269  0057  3000               	movlw	0
  5270  0058  00B1               	movwf	___flmul@b+3
  5271  0059  3000               	movlw	0
  5272  005A  00B0               	movwf	___flmul@b+2
  5273  005B  3000               	movlw	0
  5274  005C  00AF               	movwf	___flmul@b+1
  5275  005D  3000               	movlw	0
  5276  005E  00AE               	movwf	___flmul@b
  5277  005F                     l3008:	
  5278  005F  0835               	movf	___flmul@a+3,w
  5279  0060  3980               	andlw	128
  5280  0061  00B6               	movwf	??___flmul
  5281  0062  0836               	movf	??___flmul,w
  5282  0063  06BB               	xorwf	___flmul@sign,f
  5283  0064                     l3010:	
  5284  0064  0835               	movf	___flmul@a+3,w
  5285  0065  00B6               	movwf	??___flmul
  5286  0066  0736               	addwf	??___flmul,w
  5287  0067  00B7               	movwf	??___flmul+1
  5288  0068  0837               	movf	??___flmul+1,w
  5289  0069  00BC               	movwf	___flmul@aexp
  5290  006A                     l3012:	
  5291  006A  1FB4               	btfss	___flmul@a+2,7
  5292  006B  286D               	goto	u4461
  5293  006C  286E               	goto	u4460
  5294  006D                     u4461:	
  5295  006D  286F               	goto	l3016
  5296  006E                     u4460:	
  5297  006E                     l3014:	
  5298  006E  143C               	bsf	___flmul@aexp,0
  5299  006F                     l3016:	
  5300  006F  083C               	movf	___flmul@aexp,w
  5301  0070  1903               	btfsc	3,2
  5302  0071  2873               	goto	u4471
  5303  0072  2874               	goto	u4470
  5304  0073                     u4471:	
  5305  0073  2883               	goto	l3024
  5306  0074                     u4470:	
  5307  0074                     l3018:	
  5308  0074  0A3C               	incf	___flmul@aexp,w
  5309  0075  1D03               	btfss	3,2
  5310  0076  2878               	goto	u4481
  5311  0077  2879               	goto	u4480
  5312  0078                     u4481:	
  5313  0078  2881               	goto	l3022
  5314  0079                     u4480:	
  5315  0079                     l3020:	
  5316  0079  3000               	movlw	0
  5317  007A  00B5               	movwf	___flmul@a+3
  5318  007B  3000               	movlw	0
  5319  007C  00B4               	movwf	___flmul@a+2
  5320  007D  3000               	movlw	0
  5321  007E  00B3               	movwf	___flmul@a+1
  5322  007F  3000               	movlw	0
  5323  0080  00B2               	movwf	___flmul@a
  5324  0081                     l3022:	
  5325  0081  17B4               	bsf	___flmul@a+2,7
  5326  0082  288B               	goto	l3026
  5327  0083                     l3024:	
  5328  0083  3000               	movlw	0
  5329  0084  00B5               	movwf	___flmul@a+3
  5330  0085  3000               	movlw	0
  5331  0086  00B4               	movwf	___flmul@a+2
  5332  0087  3000               	movlw	0
  5333  0088  00B3               	movwf	___flmul@a+1
  5334  0089  3000               	movlw	0
  5335  008A  00B2               	movwf	___flmul@a
  5336  008B                     l3026:	
  5337  008B  083C               	movf	___flmul@aexp,w
  5338  008C  1903               	btfsc	3,2
  5339  008D  288F               	goto	u4491
  5340  008E  2890               	goto	u4490
  5341  008F                     u4491:	
  5342  008F  2895               	goto	l3030
  5343  0090                     u4490:	
  5344  0090                     l3028:	
  5345  0090  0841               	movf	___flmul@bexp,w
  5346  0091  1D03               	btfss	3,2
  5347  0092  2894               	goto	u4501
  5348  0093  2895               	goto	u4500
  5349  0094                     u4501:	
  5350  0094  289E               	goto	l3034
  5351  0095                     u4500:	
  5352  0095                     l3030:	
  5353  0095  3000               	movlw	0
  5354  0096  00B1               	movwf	?___flmul+3
  5355  0097  3000               	movlw	0
  5356  0098  00B0               	movwf	?___flmul+2
  5357  0099  3000               	movlw	0
  5358  009A  00AF               	movwf	?___flmul+1
  5359  009B  3000               	movlw	0
  5360  009C  00AE               	movwf	?___flmul
  5361  009D  2B91               	goto	l669
  5362  009E                     l3034:	
  5363  009E  082E               	movf	___flmul@b,w
  5364  009F  00B6               	movwf	??___flmul
  5365  00A0  0836               	movf	??___flmul,w
  5366  00A1  00F5               	movwf	__Umul8_16@multiplicand
  5367  00A2  0834               	movf	___flmul@a+2,w
  5368  00A3  120A  158A  20A5  120A  118A  	fcall	__Umul8_16
  5369  00A8  0876               	movf	?__Umul8_16+1,w
  5370  00A9  1283               	bcf	3,5	;RP0=0, select bank0
  5371  00AA  1303               	bcf	3,6	;RP1=0, select bank0
  5372  00AB  00C7               	movwf	___flmul@temp+1
  5373  00AC  0875               	movf	?__Umul8_16,w
  5374  00AD  00C6               	movwf	___flmul@temp
  5375  00AE                     l3036:	
  5376  00AE  0846               	movf	___flmul@temp,w
  5377  00AF  00B6               	movwf	??___flmul
  5378  00B0  01B7               	clrf	??___flmul+1
  5379  00B1  01B8               	clrf	??___flmul+2
  5380  00B2  01B9               	clrf	??___flmul+3
  5381  00B3  0839               	movf	??___flmul+3,w
  5382  00B4  00C0               	movwf	___flmul@grs+3
  5383  00B5  0838               	movf	??___flmul+2,w
  5384  00B6  00BF               	movwf	___flmul@grs+2
  5385  00B7  0837               	movf	??___flmul+1,w
  5386  00B8  00BE               	movwf	___flmul@grs+1
  5387  00B9  0836               	movf	??___flmul,w
  5388  00BA  00BD               	movwf	___flmul@grs
  5389  00BB                     l3038:	
  5390  00BB  0847               	movf	___flmul@temp+1,w
  5391  00BC  00B6               	movwf	??___flmul
  5392  00BD  01B7               	clrf	??___flmul+1
  5393  00BE  01B8               	clrf	??___flmul+2
  5394  00BF  01B9               	clrf	??___flmul+3
  5395  00C0  0839               	movf	??___flmul+3,w
  5396  00C1  00C5               	movwf	___flmul@prod+3
  5397  00C2  0838               	movf	??___flmul+2,w
  5398  00C3  00C4               	movwf	___flmul@prod+2
  5399  00C4  0837               	movf	??___flmul+1,w
  5400  00C5  00C3               	movwf	___flmul@prod+1
  5401  00C6  0836               	movf	??___flmul,w
  5402  00C7  00C2               	movwf	___flmul@prod
  5403  00C8  082F               	movf	___flmul@b+1,w
  5404  00C9  00B6               	movwf	??___flmul
  5405  00CA  0836               	movf	??___flmul,w
  5406  00CB  00F5               	movwf	__Umul8_16@multiplicand
  5407  00CC  0833               	movf	___flmul@a+1,w
  5408  00CD  120A  158A  20A5  120A  118A  	fcall	__Umul8_16
  5409  00D2  0876               	movf	?__Umul8_16+1,w
  5410  00D3  1283               	bcf	3,5	;RP0=0, select bank0
  5411  00D4  1303               	bcf	3,6	;RP1=0, select bank0
  5412  00D5  00C7               	movwf	___flmul@temp+1
  5413  00D6  0875               	movf	?__Umul8_16,w
  5414  00D7  00C6               	movwf	___flmul@temp
  5415  00D8                     l3040:	
  5416  00D8  0846               	movf	___flmul@temp,w
  5417  00D9  00B6               	movwf	??___flmul
  5418  00DA  01B7               	clrf	??___flmul+1
  5419  00DB  01B8               	clrf	??___flmul+2
  5420  00DC  01B9               	clrf	??___flmul+3
  5421  00DD  0836               	movf	??___flmul,w
  5422  00DE  07BD               	addwf	___flmul@grs,f
  5423  00DF  0837               	movf	??___flmul+1,w
  5424  00E0  1103               	clrz
  5425  00E1  1803               	skipnc
  5426  00E2  3E01               	addlw	1
  5427  00E3  1903               	skipnz
  5428  00E4  28E6               	goto	u4511
  5429  00E5  07BE               	addwf	___flmul@grs+1,f
  5430  00E6                     u4511:	
  5431  00E6  0838               	movf	??___flmul+2,w
  5432  00E7  1103               	clrz
  5433  00E8  1803               	skipnc
  5434  00E9  3E01               	addlw	1
  5435  00EA  1903               	skipnz
  5436  00EB  28ED               	goto	u4512
  5437  00EC  07BF               	addwf	___flmul@grs+2,f
  5438  00ED                     u4512:	
  5439  00ED  0839               	movf	??___flmul+3,w
  5440  00EE  1103               	clrz
  5441  00EF  1803               	skipnc
  5442  00F0  3E01               	addlw	1
  5443  00F1  1903               	skipnz
  5444  00F2  28F4               	goto	u4513
  5445  00F3  07C0               	addwf	___flmul@grs+3,f
  5446  00F4                     u4513:	
  5447  00F4                     l3042:	
  5448  00F4  0847               	movf	___flmul@temp+1,w
  5449  00F5  00B6               	movwf	??___flmul
  5450  00F6  01B7               	clrf	??___flmul+1
  5451  00F7  01B8               	clrf	??___flmul+2
  5452  00F8  01B9               	clrf	??___flmul+3
  5453  00F9  0836               	movf	??___flmul,w
  5454  00FA  07C2               	addwf	___flmul@prod,f
  5455  00FB  0837               	movf	??___flmul+1,w
  5456  00FC  1103               	clrz
  5457  00FD  1803               	skipnc
  5458  00FE  3E01               	addlw	1
  5459  00FF  1903               	skipnz
  5460  0100  2902               	goto	u4521
  5461  0101  07C3               	addwf	___flmul@prod+1,f
  5462  0102                     u4521:	
  5463  0102  0838               	movf	??___flmul+2,w
  5464  0103  1103               	clrz
  5465  0104  1803               	skipnc
  5466  0105  3E01               	addlw	1
  5467  0106  1903               	skipnz
  5468  0107  2909               	goto	u4522
  5469  0108  07C4               	addwf	___flmul@prod+2,f
  5470  0109                     u4522:	
  5471  0109  0839               	movf	??___flmul+3,w
  5472  010A  1103               	clrz
  5473  010B  1803               	skipnc
  5474  010C  3E01               	addlw	1
  5475  010D  1903               	skipnz
  5476  010E  2910               	goto	u4523
  5477  010F  07C5               	addwf	___flmul@prod+3,f
  5478  0110                     u4523:	
  5479  0110  0830               	movf	___flmul@b+2,w
  5480  0111  00B6               	movwf	??___flmul
  5481  0112  0836               	movf	??___flmul,w
  5482  0113  00F5               	movwf	__Umul8_16@multiplicand
  5483  0114  0832               	movf	___flmul@a,w
  5484  0115  120A  158A  20A5  120A  118A  	fcall	__Umul8_16
  5485  011A  0876               	movf	?__Umul8_16+1,w
  5486  011B  1283               	bcf	3,5	;RP0=0, select bank0
  5487  011C  1303               	bcf	3,6	;RP1=0, select bank0
  5488  011D  00C7               	movwf	___flmul@temp+1
  5489  011E  0875               	movf	?__Umul8_16,w
  5490  011F  00C6               	movwf	___flmul@temp
  5491  0120                     l3044:	
  5492  0120  0846               	movf	___flmul@temp,w
  5493  0121  00B6               	movwf	??___flmul
  5494  0122  01B7               	clrf	??___flmul+1
  5495  0123  01B8               	clrf	??___flmul+2
  5496  0124  01B9               	clrf	??___flmul+3
  5497  0125  0836               	movf	??___flmul,w
  5498  0126  07BD               	addwf	___flmul@grs,f
  5499  0127  0837               	movf	??___flmul+1,w
  5500  0128  1103               	clrz
  5501  0129  1803               	skipnc
  5502  012A  3E01               	addlw	1
  5503  012B  1903               	skipnz
  5504  012C  292E               	goto	u4531
  5505  012D  07BE               	addwf	___flmul@grs+1,f
  5506  012E                     u4531:	
  5507  012E  0838               	movf	??___flmul+2,w
  5508  012F  1103               	clrz
  5509  0130  1803               	skipnc
  5510  0131  3E01               	addlw	1
  5511  0132  1903               	skipnz
  5512  0133  2935               	goto	u4532
  5513  0134  07BF               	addwf	___flmul@grs+2,f
  5514  0135                     u4532:	
  5515  0135  0839               	movf	??___flmul+3,w
  5516  0136  1103               	clrz
  5517  0137  1803               	skipnc
  5518  0138  3E01               	addlw	1
  5519  0139  1903               	skipnz
  5520  013A  293C               	goto	u4533
  5521  013B  07C0               	addwf	___flmul@grs+3,f
  5522  013C                     u4533:	
  5523  013C                     l3046:	
  5524  013C  0847               	movf	___flmul@temp+1,w
  5525  013D  00B6               	movwf	??___flmul
  5526  013E  01B7               	clrf	??___flmul+1
  5527  013F  01B8               	clrf	??___flmul+2
  5528  0140  01B9               	clrf	??___flmul+3
  5529  0141  0836               	movf	??___flmul,w
  5530  0142  07C2               	addwf	___flmul@prod,f
  5531  0143  0837               	movf	??___flmul+1,w
  5532  0144  1103               	clrz
  5533  0145  1803               	skipnc
  5534  0146  3E01               	addlw	1
  5535  0147  1903               	skipnz
  5536  0148  294A               	goto	u4541
  5537  0149  07C3               	addwf	___flmul@prod+1,f
  5538  014A                     u4541:	
  5539  014A  0838               	movf	??___flmul+2,w
  5540  014B  1103               	clrz
  5541  014C  1803               	skipnc
  5542  014D  3E01               	addlw	1
  5543  014E  1903               	skipnz
  5544  014F  2951               	goto	u4542
  5545  0150  07C4               	addwf	___flmul@prod+2,f
  5546  0151                     u4542:	
  5547  0151  0839               	movf	??___flmul+3,w
  5548  0152  1103               	clrz
  5549  0153  1803               	skipnc
  5550  0154  3E01               	addlw	1
  5551  0155  1903               	skipnz
  5552  0156  2958               	goto	u4543
  5553  0157  07C5               	addwf	___flmul@prod+3,f
  5554  0158                     u4543:	
  5555  0158                     l3048:	
  5556  0158  3008               	movlw	8
  5557  0159  00B6               	movwf	??___flmul
  5558  015A                     u4555:	
  5559  015A  1003               	clrc
  5560  015B  0DBD               	rlf	___flmul@grs,f
  5561  015C  0DBE               	rlf	___flmul@grs+1,f
  5562  015D  0DBF               	rlf	___flmul@grs+2,f
  5563  015E  0DC0               	rlf	___flmul@grs+3,f
  5564  015F  0BB6               	decfsz	??___flmul,f
  5565  0160  295A               	goto	u4555
  5566  0161                     l3050:	
  5567  0161  082F               	movf	___flmul@b+1,w
  5568  0162  00B6               	movwf	??___flmul
  5569  0163  0836               	movf	??___flmul,w
  5570  0164  00F5               	movwf	__Umul8_16@multiplicand
  5571  0165  0832               	movf	___flmul@a,w
  5572  0166  120A  158A  20A5  120A  118A  	fcall	__Umul8_16
  5573  016B  0876               	movf	?__Umul8_16+1,w
  5574  016C  1283               	bcf	3,5	;RP0=0, select bank0
  5575  016D  1303               	bcf	3,6	;RP1=0, select bank0
  5576  016E  00C7               	movwf	___flmul@temp+1
  5577  016F  0875               	movf	?__Umul8_16,w
  5578  0170  00C6               	movwf	___flmul@temp
  5579  0171                     l3052:	
  5580  0171  0846               	movf	___flmul@temp,w
  5581  0172  00B6               	movwf	??___flmul
  5582  0173  0847               	movf	___flmul@temp+1,w
  5583  0174  00B7               	movwf	??___flmul+1
  5584  0175  01B8               	clrf	??___flmul+2
  5585  0176  01B9               	clrf	??___flmul+3
  5586  0177  0836               	movf	??___flmul,w
  5587  0178  07BD               	addwf	___flmul@grs,f
  5588  0179  0837               	movf	??___flmul+1,w
  5589  017A  1103               	clrz
  5590  017B  1803               	skipnc
  5591  017C  3E01               	addlw	1
  5592  017D  1903               	skipnz
  5593  017E  2980               	goto	u4561
  5594  017F  07BE               	addwf	___flmul@grs+1,f
  5595  0180                     u4561:	
  5596  0180  0838               	movf	??___flmul+2,w
  5597  0181  1103               	clrz
  5598  0182  1803               	skipnc
  5599  0183  3E01               	addlw	1
  5600  0184  1903               	skipnz
  5601  0185  2987               	goto	u4562
  5602  0186  07BF               	addwf	___flmul@grs+2,f
  5603  0187                     u4562:	
  5604  0187  0839               	movf	??___flmul+3,w
  5605  0188  1103               	clrz
  5606  0189  1803               	skipnc
  5607  018A  3E01               	addlw	1
  5608  018B  1903               	skipnz
  5609  018C  298E               	goto	u4563
  5610  018D  07C0               	addwf	___flmul@grs+3,f
  5611  018E                     u4563:	
  5612  018E                     l3054:	
  5613  018E  082E               	movf	___flmul@b,w
  5614  018F  00B6               	movwf	??___flmul
  5615  0190  0836               	movf	??___flmul,w
  5616  0191  00F5               	movwf	__Umul8_16@multiplicand
  5617  0192  0833               	movf	___flmul@a+1,w
  5618  0193  120A  158A  20A5  120A  118A  	fcall	__Umul8_16
  5619  0198  0876               	movf	?__Umul8_16+1,w
  5620  0199  1283               	bcf	3,5	;RP0=0, select bank0
  5621  019A  1303               	bcf	3,6	;RP1=0, select bank0
  5622  019B  00C7               	movwf	___flmul@temp+1
  5623  019C  0875               	movf	?__Umul8_16,w
  5624  019D  00C6               	movwf	___flmul@temp
  5625  019E                     l3056:	
  5626  019E  0846               	movf	___flmul@temp,w
  5627  019F  00B6               	movwf	??___flmul
  5628  01A0  0847               	movf	___flmul@temp+1,w
  5629  01A1  00B7               	movwf	??___flmul+1
  5630  01A2  01B8               	clrf	??___flmul+2
  5631  01A3  01B9               	clrf	??___flmul+3
  5632  01A4  0836               	movf	??___flmul,w
  5633  01A5  07BD               	addwf	___flmul@grs,f
  5634  01A6  0837               	movf	??___flmul+1,w
  5635  01A7  1103               	clrz
  5636  01A8  1803               	skipnc
  5637  01A9  3E01               	addlw	1
  5638  01AA  1903               	skipnz
  5639  01AB  29AD               	goto	u4571
  5640  01AC  07BE               	addwf	___flmul@grs+1,f
  5641  01AD                     u4571:	
  5642  01AD  0838               	movf	??___flmul+2,w
  5643  01AE  1103               	clrz
  5644  01AF  1803               	skipnc
  5645  01B0  3E01               	addlw	1
  5646  01B1  1903               	skipnz
  5647  01B2  29B4               	goto	u4572
  5648  01B3  07BF               	addwf	___flmul@grs+2,f
  5649  01B4                     u4572:	
  5650  01B4  0839               	movf	??___flmul+3,w
  5651  01B5  1103               	clrz
  5652  01B6  1803               	skipnc
  5653  01B7  3E01               	addlw	1
  5654  01B8  1903               	skipnz
  5655  01B9  29BB               	goto	u4573
  5656  01BA  07C0               	addwf	___flmul@grs+3,f
  5657  01BB                     u4573:	
  5658  01BB                     l3058:	
  5659  01BB  3008               	movlw	8
  5660  01BC  00B6               	movwf	??___flmul
  5661  01BD                     u4585:	
  5662  01BD  1003               	clrc
  5663  01BE  0DBD               	rlf	___flmul@grs,f
  5664  01BF  0DBE               	rlf	___flmul@grs+1,f
  5665  01C0  0DBF               	rlf	___flmul@grs+2,f
  5666  01C1  0DC0               	rlf	___flmul@grs+3,f
  5667  01C2  0BB6               	decfsz	??___flmul,f
  5668  01C3  29BD               	goto	u4585
  5669  01C4  082E               	movf	___flmul@b,w
  5670  01C5  00B6               	movwf	??___flmul
  5671  01C6  0836               	movf	??___flmul,w
  5672  01C7  00F5               	movwf	__Umul8_16@multiplicand
  5673  01C8  0832               	movf	___flmul@a,w
  5674  01C9  120A  158A  20A5  120A  118A  	fcall	__Umul8_16
  5675  01CE  0876               	movf	?__Umul8_16+1,w
  5676  01CF  1283               	bcf	3,5	;RP0=0, select bank0
  5677  01D0  1303               	bcf	3,6	;RP1=0, select bank0
  5678  01D1  00C7               	movwf	___flmul@temp+1
  5679  01D2  0875               	movf	?__Umul8_16,w
  5680  01D3  00C6               	movwf	___flmul@temp
  5681  01D4                     l3060:	
  5682  01D4  0846               	movf	___flmul@temp,w
  5683  01D5  00B6               	movwf	??___flmul
  5684  01D6  0847               	movf	___flmul@temp+1,w
  5685  01D7  00B7               	movwf	??___flmul+1
  5686  01D8  01B8               	clrf	??___flmul+2
  5687  01D9  01B9               	clrf	??___flmul+3
  5688  01DA  0836               	movf	??___flmul,w
  5689  01DB  07BD               	addwf	___flmul@grs,f
  5690  01DC  0837               	movf	??___flmul+1,w
  5691  01DD  1103               	clrz
  5692  01DE  1803               	skipnc
  5693  01DF  3E01               	addlw	1
  5694  01E0  1903               	skipnz
  5695  01E1  29E3               	goto	u4591
  5696  01E2  07BE               	addwf	___flmul@grs+1,f
  5697  01E3                     u4591:	
  5698  01E3  0838               	movf	??___flmul+2,w
  5699  01E4  1103               	clrz
  5700  01E5  1803               	skipnc
  5701  01E6  3E01               	addlw	1
  5702  01E7  1903               	skipnz
  5703  01E8  29EA               	goto	u4592
  5704  01E9  07BF               	addwf	___flmul@grs+2,f
  5705  01EA                     u4592:	
  5706  01EA  0839               	movf	??___flmul+3,w
  5707  01EB  1103               	clrz
  5708  01EC  1803               	skipnc
  5709  01ED  3E01               	addlw	1
  5710  01EE  1903               	skipnz
  5711  01EF  29F1               	goto	u4593
  5712  01F0  07C0               	addwf	___flmul@grs+3,f
  5713  01F1                     u4593:	
  5714  01F1                     l3062:	
  5715  01F1  082F               	movf	___flmul@b+1,w
  5716  01F2  00B6               	movwf	??___flmul
  5717  01F3  0836               	movf	??___flmul,w
  5718  01F4  00F5               	movwf	__Umul8_16@multiplicand
  5719  01F5  0834               	movf	___flmul@a+2,w
  5720  01F6  120A  158A  20A5  120A  118A  	fcall	__Umul8_16
  5721  01FB  0876               	movf	?__Umul8_16+1,w
  5722  01FC  1283               	bcf	3,5	;RP0=0, select bank0
  5723  01FD  1303               	bcf	3,6	;RP1=0, select bank0
  5724  01FE  00C7               	movwf	___flmul@temp+1
  5725  01FF  0875               	movf	?__Umul8_16,w
  5726  0200  00C6               	movwf	___flmul@temp
  5727  0201  0846               	movf	___flmul@temp,w
  5728  0202  00B6               	movwf	??___flmul
  5729  0203  0847               	movf	___flmul@temp+1,w
  5730  0204  00B7               	movwf	??___flmul+1
  5731  0205  01B8               	clrf	??___flmul+2
  5732  0206  01B9               	clrf	??___flmul+3
  5733  0207  0836               	movf	??___flmul,w
  5734  0208  07C2               	addwf	___flmul@prod,f
  5735  0209  0837               	movf	??___flmul+1,w
  5736  020A  1103               	clrz
  5737  020B  1803               	skipnc
  5738  020C  3E01               	addlw	1
  5739  020D  1903               	skipnz
  5740  020E  2A10               	goto	u4601
  5741  020F  07C3               	addwf	___flmul@prod+1,f
  5742  0210                     u4601:	
  5743  0210  0838               	movf	??___flmul+2,w
  5744  0211  1103               	clrz
  5745  0212  1803               	skipnc
  5746  0213  3E01               	addlw	1
  5747  0214  1903               	skipnz
  5748  0215  2A17               	goto	u4602
  5749  0216  07C4               	addwf	___flmul@prod+2,f
  5750  0217                     u4602:	
  5751  0217  0839               	movf	??___flmul+3,w
  5752  0218  1103               	clrz
  5753  0219  1803               	skipnc
  5754  021A  3E01               	addlw	1
  5755  021B  1903               	skipnz
  5756  021C  2A1E               	goto	u4603
  5757  021D  07C5               	addwf	___flmul@prod+3,f
  5758  021E                     u4603:	
  5759  021E                     l3064:	
  5760  021E  0830               	movf	___flmul@b+2,w
  5761  021F  00B6               	movwf	??___flmul
  5762  0220  0836               	movf	??___flmul,w
  5763  0221  00F5               	movwf	__Umul8_16@multiplicand
  5764  0222  0833               	movf	___flmul@a+1,w
  5765  0223  120A  158A  20A5  120A  118A  	fcall	__Umul8_16
  5766  0228  0876               	movf	?__Umul8_16+1,w
  5767  0229  1283               	bcf	3,5	;RP0=0, select bank0
  5768  022A  1303               	bcf	3,6	;RP1=0, select bank0
  5769  022B  00C7               	movwf	___flmul@temp+1
  5770  022C  0875               	movf	?__Umul8_16,w
  5771  022D  00C6               	movwf	___flmul@temp
  5772  022E                     l3066:	
  5773  022E  0846               	movf	___flmul@temp,w
  5774  022F  00B6               	movwf	??___flmul
  5775  0230  0847               	movf	___flmul@temp+1,w
  5776  0231  00B7               	movwf	??___flmul+1
  5777  0232  01B8               	clrf	??___flmul+2
  5778  0233  01B9               	clrf	??___flmul+3
  5779  0234  0836               	movf	??___flmul,w
  5780  0235  07C2               	addwf	___flmul@prod,f
  5781  0236  0837               	movf	??___flmul+1,w
  5782  0237  1103               	clrz
  5783  0238  1803               	skipnc
  5784  0239  3E01               	addlw	1
  5785  023A  1903               	skipnz
  5786  023B  2A3D               	goto	u4611
  5787  023C  07C3               	addwf	___flmul@prod+1,f
  5788  023D                     u4611:	
  5789  023D  0838               	movf	??___flmul+2,w
  5790  023E  1103               	clrz
  5791  023F  1803               	skipnc
  5792  0240  3E01               	addlw	1
  5793  0241  1903               	skipnz
  5794  0242  2A44               	goto	u4612
  5795  0243  07C4               	addwf	___flmul@prod+2,f
  5796  0244                     u4612:	
  5797  0244  0839               	movf	??___flmul+3,w
  5798  0245  1103               	clrz
  5799  0246  1803               	skipnc
  5800  0247  3E01               	addlw	1
  5801  0248  1903               	skipnz
  5802  0249  2A4B               	goto	u4613
  5803  024A  07C5               	addwf	___flmul@prod+3,f
  5804  024B                     u4613:	
  5805  024B  0830               	movf	___flmul@b+2,w
  5806  024C  00B6               	movwf	??___flmul
  5807  024D  0836               	movf	??___flmul,w
  5808  024E  00F5               	movwf	__Umul8_16@multiplicand
  5809  024F  0834               	movf	___flmul@a+2,w
  5810  0250  120A  158A  20A5  120A  118A  	fcall	__Umul8_16
  5811  0255  0876               	movf	?__Umul8_16+1,w
  5812  0256  1283               	bcf	3,5	;RP0=0, select bank0
  5813  0257  1303               	bcf	3,6	;RP1=0, select bank0
  5814  0258  00C7               	movwf	___flmul@temp+1
  5815  0259  0875               	movf	?__Umul8_16,w
  5816  025A  00C6               	movwf	___flmul@temp
  5817  025B                     l3068:	
  5818  025B  0846               	movf	___flmul@temp,w
  5819  025C  00B6               	movwf	??___flmul
  5820  025D  0847               	movf	___flmul@temp+1,w
  5821  025E  00B7               	movwf	??___flmul+1
  5822  025F  01B8               	clrf	??___flmul+2
  5823  0260  01B9               	clrf	??___flmul+3
  5824  0261  3008               	movlw	8
  5825  0262                     u4625:	
  5826  0262  1003               	clrc
  5827  0263  0DB6               	rlf	??___flmul,f
  5828  0264  0DB7               	rlf	??___flmul+1,f
  5829  0265  0DB8               	rlf	??___flmul+2,f
  5830  0266  0DB9               	rlf	??___flmul+3,f
  5831  0267                     u4620:	
  5832  0267  3EFF               	addlw	-1
  5833  0268  1D03               	skipz
  5834  0269  2A62               	goto	u4625
  5835  026A  0836               	movf	??___flmul,w
  5836  026B  07C2               	addwf	___flmul@prod,f
  5837  026C  0837               	movf	??___flmul+1,w
  5838  026D  1103               	clrz
  5839  026E  1803               	skipnc
  5840  026F  3E01               	addlw	1
  5841  0270  1903               	skipnz
  5842  0271  2A73               	goto	u4631
  5843  0272  07C3               	addwf	___flmul@prod+1,f
  5844  0273                     u4631:	
  5845  0273  0838               	movf	??___flmul+2,w
  5846  0274  1103               	clrz
  5847  0275  1803               	skipnc
  5848  0276  3E01               	addlw	1
  5849  0277  1903               	skipnz
  5850  0278  2A7A               	goto	u4632
  5851  0279  07C4               	addwf	___flmul@prod+2,f
  5852  027A                     u4632:	
  5853  027A  0839               	movf	??___flmul+3,w
  5854  027B  1103               	clrz
  5855  027C  1803               	skipnc
  5856  027D  3E01               	addlw	1
  5857  027E  1903               	skipnz
  5858  027F  2A81               	goto	u4633
  5859  0280  07C5               	addwf	___flmul@prod+3,f
  5860  0281                     u4633:	
  5861  0281                     l3070:	
  5862  0281  083D               	movf	___flmul@grs,w
  5863  0282  00B6               	movwf	??___flmul
  5864  0283  083E               	movf	___flmul@grs+1,w
  5865  0284  00B7               	movwf	??___flmul+1
  5866  0285  083F               	movf	___flmul@grs+2,w
  5867  0286  00B8               	movwf	??___flmul+2
  5868  0287  0840               	movf	___flmul@grs+3,w
  5869  0288  00B9               	movwf	??___flmul+3
  5870  0289  3018               	movlw	24
  5871  028A                     u4645:	
  5872  028A  1003               	clrc
  5873  028B  0CB9               	rrf	??___flmul+3,f
  5874  028C  0CB8               	rrf	??___flmul+2,f
  5875  028D  0CB7               	rrf	??___flmul+1,f
  5876  028E  0CB6               	rrf	??___flmul,f
  5877  028F                     u4640:	
  5878  028F  3EFF               	addlw	-1
  5879  0290  1D03               	skipz
  5880  0291  2A8A               	goto	u4645
  5881  0292  0836               	movf	??___flmul,w
  5882  0293  07C2               	addwf	___flmul@prod,f
  5883  0294  0837               	movf	??___flmul+1,w
  5884  0295  1103               	clrz
  5885  0296  1803               	skipnc
  5886  0297  3E01               	addlw	1
  5887  0298  1903               	skipnz
  5888  0299  2A9B               	goto	u4651
  5889  029A  07C3               	addwf	___flmul@prod+1,f
  5890  029B                     u4651:	
  5891  029B  0838               	movf	??___flmul+2,w
  5892  029C  1103               	clrz
  5893  029D  1803               	skipnc
  5894  029E  3E01               	addlw	1
  5895  029F  1903               	skipnz
  5896  02A0  2AA2               	goto	u4652
  5897  02A1  07C4               	addwf	___flmul@prod+2,f
  5898  02A2                     u4652:	
  5899  02A2  0839               	movf	??___flmul+3,w
  5900  02A3  1103               	clrz
  5901  02A4  1803               	skipnc
  5902  02A5  3E01               	addlw	1
  5903  02A6  1903               	skipnz
  5904  02A7  2AA9               	goto	u4653
  5905  02A8  07C5               	addwf	___flmul@prod+3,f
  5906  02A9                     u4653:	
  5907  02A9                     l3072:	
  5908  02A9  3008               	movlw	8
  5909  02AA  00B6               	movwf	??___flmul
  5910  02AB                     u4665:	
  5911  02AB  1003               	clrc
  5912  02AC  0DBD               	rlf	___flmul@grs,f
  5913  02AD  0DBE               	rlf	___flmul@grs+1,f
  5914  02AE  0DBF               	rlf	___flmul@grs+2,f
  5915  02AF  0DC0               	rlf	___flmul@grs+3,f
  5916  02B0  0BB6               	decfsz	??___flmul,f
  5917  02B1  2AAB               	goto	u4665
  5918  02B2                     l3074:	
  5919  02B2  0841               	movf	___flmul@bexp,w
  5920  02B3  073C               	addwf	___flmul@aexp,w
  5921  02B4  00B6               	movwf	??___flmul
  5922  02B5  01B7               	clrf	??___flmul+1
  5923  02B6  0DB7               	rlf	??___flmul+1,f
  5924  02B7  0836               	movf	??___flmul,w
  5925  02B8  3E82               	addlw	130
  5926  02B9  00C6               	movwf	___flmul@temp
  5927  02BA  0837               	movf	??___flmul+1,w
  5928  02BB  1803               	skipnc
  5929  02BC  3E01               	addlw	1
  5930  02BD  3EFF               	addlw	255
  5931  02BE  00C7               	movwf	___flmul@temp+1
  5932  02BF  2ADD               	goto	l3086
  5933  02C0                     l3076:	
  5934  02C0  3001               	movlw	1
  5935  02C1  00B6               	movwf	??___flmul
  5936  02C2                     u4675:	
  5937  02C2  1003               	clrc
  5938  02C3  0DC2               	rlf	___flmul@prod,f
  5939  02C4  0DC3               	rlf	___flmul@prod+1,f
  5940  02C5  0DC4               	rlf	___flmul@prod+2,f
  5941  02C6  0DC5               	rlf	___flmul@prod+3,f
  5942  02C7  0BB6               	decfsz	??___flmul,f
  5943  02C8  2AC2               	goto	u4675
  5944  02C9                     l3078:	
  5945  02C9  1FC0               	btfss	___flmul@grs+3,7
  5946  02CA  2ACC               	goto	u4681
  5947  02CB  2ACD               	goto	u4680
  5948  02CC                     u4681:	
  5949  02CC  2ACE               	goto	l3082
  5950  02CD                     u4680:	
  5951  02CD                     l3080:	
  5952  02CD  1442               	bsf	___flmul@prod,0
  5953  02CE                     l3082:	
  5954  02CE  3001               	movlw	1
  5955  02CF  00B6               	movwf	??___flmul
  5956  02D0                     u4695:	
  5957  02D0  1003               	clrc
  5958  02D1  0DBD               	rlf	___flmul@grs,f
  5959  02D2  0DBE               	rlf	___flmul@grs+1,f
  5960  02D3  0DBF               	rlf	___flmul@grs+2,f
  5961  02D4  0DC0               	rlf	___flmul@grs+3,f
  5962  02D5  0BB6               	decfsz	??___flmul,f
  5963  02D6  2AD0               	goto	u4695
  5964  02D7                     l3084:	
  5965  02D7  30FF               	movlw	255
  5966  02D8  07C6               	addwf	___flmul@temp,f
  5967  02D9  1803               	skipnc
  5968  02DA  0AC7               	incf	___flmul@temp+1,f
  5969  02DB  30FF               	movlw	255
  5970  02DC  07C7               	addwf	___flmul@temp+1,f
  5971  02DD                     l3086:	
  5972  02DD  1FC4               	btfss	___flmul@prod+2,7
  5973  02DE  2AE0               	goto	u4701
  5974  02DF  2AE1               	goto	u4700
  5975  02E0                     u4701:	
  5976  02E0  2AC0               	goto	l3076
  5977  02E1                     u4700:	
  5978  02E1                     l3088:	
  5979  02E1  01BC               	clrf	___flmul@aexp
  5980  02E2                     l3090:	
  5981  02E2  1FC0               	btfss	___flmul@grs+3,7
  5982  02E3  2AE5               	goto	u4711
  5983  02E4  2AE6               	goto	u4710
  5984  02E5                     u4711:	
  5985  02E5  2B02               	goto	l3098
  5986  02E6                     u4710:	
  5987  02E6                     l3092:	
  5988  02E6  30FF               	movlw	255
  5989  02E7  053D               	andwf	___flmul@grs,w
  5990  02E8  00B6               	movwf	??___flmul
  5991  02E9  30FF               	movlw	255
  5992  02EA  053E               	andwf	___flmul@grs+1,w
  5993  02EB  00B7               	movwf	??___flmul+1
  5994  02EC  30FF               	movlw	255
  5995  02ED  053F               	andwf	___flmul@grs+2,w
  5996  02EE  00B8               	movwf	??___flmul+2
  5997  02EF  307F               	movlw	127
  5998  02F0  0540               	andwf	___flmul@grs+3,w
  5999  02F1  00B9               	movwf	??___flmul+3
  6000  02F2  0839               	movf	??___flmul+3,w
  6001  02F3  0438               	iorwf	??___flmul+2,w
  6002  02F4  0437               	iorwf	??___flmul+1,w
  6003  02F5  0436               	iorwf	??___flmul,w
  6004  02F6  1903               	skipnz
  6005  02F7  2AF9               	goto	u4721
  6006  02F8  2AFA               	goto	u4720
  6007  02F9                     u4721:	
  6008  02F9  2AFD               	goto	l675
  6009  02FA                     u4720:	
  6010  02FA                     l3094:	
  6011  02FA  01BC               	clrf	___flmul@aexp
  6012  02FB  0ABC               	incf	___flmul@aexp,f
  6013  02FC  2B02               	goto	l3098
  6014  02FD                     l675:	
  6015  02FD  1C42               	btfss	___flmul@prod,0
  6016  02FE  2B00               	goto	u4731
  6017  02FF  2B01               	goto	u4730
  6018  0300                     u4731:	
  6019  0300  2B02               	goto	l3098
  6020  0301                     u4730:	
  6021  0301  2AFA               	goto	l3094
  6022  0302                     l3098:	
  6023  0302  083C               	movf	___flmul@aexp,w
  6024  0303  1903               	btfsc	3,2
  6025  0304  2B06               	goto	u4741
  6026  0305  2B07               	goto	u4740
  6027  0306                     u4741:	
  6028  0306  2B38               	goto	l3108
  6029  0307                     u4740:	
  6030  0307                     l3100:	
  6031  0307  3001               	movlw	1
  6032  0308  07C2               	addwf	___flmul@prod,f
  6033  0309  3000               	movlw	0
  6034  030A  1803               	skipnc
  6035  030B  3001               	movlw	1
  6036  030C  07C3               	addwf	___flmul@prod+1,f
  6037  030D  3000               	movlw	0
  6038  030E  1803               	skipnc
  6039  030F  3001               	movlw	1
  6040  0310  07C4               	addwf	___flmul@prod+2,f
  6041  0311  3000               	movlw	0
  6042  0312  1803               	skipnc
  6043  0313  3001               	movlw	1
  6044  0314  07C5               	addwf	___flmul@prod+3,f
  6045  0315                     l3102:	
  6046  0315  1C45               	btfss	___flmul@prod+3,0
  6047  0316  2B18               	goto	u4751
  6048  0317  2B19               	goto	u4750
  6049  0318                     u4751:	
  6050  0318  2B38               	goto	l3108
  6051  0319                     u4750:	
  6052  0319                     l3104:	
  6053  0319  0842               	movf	___flmul@prod,w
  6054  031A  00B6               	movwf	??___flmul
  6055  031B  0843               	movf	___flmul@prod+1,w
  6056  031C  00B7               	movwf	??___flmul+1
  6057  031D  0844               	movf	___flmul@prod+2,w
  6058  031E  00B8               	movwf	??___flmul+2
  6059  031F  0845               	movf	___flmul@prod+3,w
  6060  0320  00B9               	movwf	??___flmul+3
  6061  0321  3001               	movlw	1
  6062  0322  00BA               	movwf	??___flmul+4
  6063  0323                     u4765:	
  6064  0323  0D39               	rlf	??___flmul+3,w
  6065  0324  0CB9               	rrf	??___flmul+3,f
  6066  0325  0CB8               	rrf	??___flmul+2,f
  6067  0326  0CB7               	rrf	??___flmul+1,f
  6068  0327  0CB6               	rrf	??___flmul,f
  6069  0328                     u4760:	
  6070  0328  0BBA               	decfsz	??___flmul+4,f
  6071  0329  2B23               	goto	u4765
  6072  032A  0839               	movf	??___flmul+3,w
  6073  032B  00C5               	movwf	___flmul@prod+3
  6074  032C  0838               	movf	??___flmul+2,w
  6075  032D  00C4               	movwf	___flmul@prod+2
  6076  032E  0837               	movf	??___flmul+1,w
  6077  032F  00C3               	movwf	___flmul@prod+1
  6078  0330  0836               	movf	??___flmul,w
  6079  0331  00C2               	movwf	___flmul@prod
  6080  0332                     l3106:	
  6081  0332  3001               	movlw	1
  6082  0333  07C6               	addwf	___flmul@temp,f
  6083  0334  1803               	skipnc
  6084  0335  0AC7               	incf	___flmul@temp+1,f
  6085  0336  3000               	movlw	0
  6086  0337  07C7               	addwf	___flmul@temp+1,f
  6087  0338                     l3108:	
  6088  0338  0847               	movf	___flmul@temp+1,w
  6089  0339  3A80               	xorlw	128
  6090  033A  00FF               	movwf	btemp+1
  6091  033B  3080               	movlw	128
  6092  033C  027F               	subwf	btemp+1,w
  6093  033D  1D03               	skipz
  6094  033E  2B41               	goto	u4775
  6095  033F  30FF               	movlw	255
  6096  0340  0246               	subwf	___flmul@temp,w
  6097  0341                     u4775:	
  6098  0341  1C03               	skipc
  6099  0342  2B44               	goto	u4771
  6100  0343  2B45               	goto	u4770
  6101  0344                     u4771:	
  6102  0344  2B50               	goto	l3112
  6103  0345                     u4770:	
  6104  0345                     l3110:	
  6105  0345  307F               	movlw	127
  6106  0346  1283               	bcf	3,5	;RP0=0, select bank0
  6107  0347  1303               	bcf	3,6	;RP1=0, select bank0
  6108  0348  00C5               	movwf	___flmul@prod+3
  6109  0349  3080               	movlw	128
  6110  034A  00C4               	movwf	___flmul@prod+2
  6111  034B  3000               	movlw	0
  6112  034C  00C3               	movwf	___flmul@prod+1
  6113  034D  3000               	movlw	0
  6114  034E  00C2               	movwf	___flmul@prod
  6115  034F  2B85               	goto	l681
  6116  0350                     l3112:	
  6117  0350  1283               	bcf	3,5	;RP0=0, select bank0
  6118  0351  1303               	bcf	3,6	;RP1=0, select bank0
  6119  0352  0847               	movf	___flmul@temp+1,w
  6120  0353  3A80               	xorlw	128
  6121  0354  00FF               	movwf	btemp+1
  6122  0355  3080               	movlw	128
  6123  0356  027F               	subwf	btemp+1,w
  6124  0357  1D03               	skipz
  6125  0358  2B5B               	goto	u4785
  6126  0359  3001               	movlw	1
  6127  035A  0246               	subwf	___flmul@temp,w
  6128  035B                     u4785:	
  6129  035B  1803               	skipnc
  6130  035C  2B5E               	goto	u4781
  6131  035D  2B5F               	goto	u4780
  6132  035E                     u4781:	
  6133  035E  2B6B               	goto	l3118
  6134  035F                     u4780:	
  6135  035F                     l3114:	
  6136  035F  3000               	movlw	0
  6137  0360  1283               	bcf	3,5	;RP0=0, select bank0
  6138  0361  1303               	bcf	3,6	;RP1=0, select bank0
  6139  0362  00C5               	movwf	___flmul@prod+3
  6140  0363  3000               	movlw	0
  6141  0364  00C4               	movwf	___flmul@prod+2
  6142  0365  3000               	movlw	0
  6143  0366  00C3               	movwf	___flmul@prod+1
  6144  0367  3000               	movlw	0
  6145  0368  00C2               	movwf	___flmul@prod
  6146  0369                     l3116:	
  6147  0369  01BB               	clrf	___flmul@sign
  6148  036A  2B85               	goto	l681
  6149  036B                     l3118:	
  6150  036B  1283               	bcf	3,5	;RP0=0, select bank0
  6151  036C  1303               	bcf	3,6	;RP1=0, select bank0
  6152  036D  0846               	movf	___flmul@temp,w
  6153  036E  00B6               	movwf	??___flmul
  6154  036F  0836               	movf	??___flmul,w
  6155  0370  00C1               	movwf	___flmul@bexp
  6156  0371  30FF               	movlw	255
  6157  0372  05C2               	andwf	___flmul@prod,f
  6158  0373  30FF               	movlw	255
  6159  0374  05C3               	andwf	___flmul@prod+1,f
  6160  0375  307F               	movlw	127
  6161  0376  05C4               	andwf	___flmul@prod+2,f
  6162  0377  3000               	movlw	0
  6163  0378  05C5               	andwf	___flmul@prod+3,f
  6164  0379                     l3120:	
  6165  0379  1C41               	btfss	___flmul@bexp,0
  6166  037A  2B7C               	goto	u4791
  6167  037B  2B7D               	goto	u4790
  6168  037C                     u4791:	
  6169  037C  2B7E               	goto	l3124
  6170  037D                     u4790:	
  6171  037D                     l3122:	
  6172  037D  17C4               	bsf	___flmul@prod+2,7
  6173  037E                     l3124:	
  6174  037E  0841               	movf	___flmul@bexp,w
  6175  037F  00B6               	movwf	??___flmul
  6176  0380  1003               	clrc
  6177  0381  0C36               	rrf	??___flmul,w
  6178  0382  00B7               	movwf	??___flmul+1
  6179  0383  0837               	movf	??___flmul+1,w
  6180  0384  00C5               	movwf	___flmul@prod+3
  6181  0385                     l681:	
  6182  0385  083B               	movf	___flmul@sign,w
  6183  0386  00B6               	movwf	??___flmul
  6184  0387  0836               	movf	??___flmul,w
  6185  0388  04C5               	iorwf	___flmul@prod+3,f
  6186  0389                     l3126:	
  6187  0389  0845               	movf	___flmul@prod+3,w
  6188  038A  00B1               	movwf	?___flmul+3
  6189  038B  0844               	movf	___flmul@prod+2,w
  6190  038C  00B0               	movwf	?___flmul+2
  6191  038D  0843               	movf	___flmul@prod+1,w
  6192  038E  00AF               	movwf	?___flmul+1
  6193  038F  0842               	movf	___flmul@prod,w
  6194  0390  00AE               	movwf	?___flmul
  6195  0391                     l669:	
  6196  0391  0008               	return
  6197  0392                     __end_of___flmul:	
  6198                           
  6199                           	psect	text15
  6200  08A5                     __ptext15:	
  6201 ;; *************** function __Umul8_16 *****************
  6202 ;; Defined at:
  6203 ;;		line 4 in file "D:\Xc8\pic\sources\c90\common\Umul8_16.c"
  6204 ;; Parameters:    Size  Location     Type
  6205 ;;  multiplier      1    wreg     unsigned char 
  6206 ;;  multiplicand    1    5[COMMON] unsigned char 
  6207 ;; Auto vars:     Size  Location     Type
  6208 ;;  multiplier      1    6[BANK0 ] unsigned char 
  6209 ;;  word_mpld       2    4[BANK0 ] unsigned int 
  6210 ;;  product         2    2[BANK0 ] unsigned int 
  6211 ;; Return value:  Size  Location     Type
  6212 ;;                  2    5[COMMON] unsigned int 
  6213 ;; Registers used:
  6214 ;;		wreg, status,2, status,0
  6215 ;; Tracked objects:
  6216 ;;		On entry : 0/0
  6217 ;;		On exit  : 0/0
  6218 ;;		Unchanged: 0/0
  6219 ;; Data sizes:     COMMON   BANK0   BANK1   BANK3   BANK2
  6220 ;;      Params:         2       0       0       0       0
  6221 ;;      Locals:         0       5       0       0       0
  6222 ;;      Temps:          0       2       0       0       0
  6223 ;;      Totals:         2       7       0       0       0
  6224 ;;Total ram usage:        9 bytes
  6225 ;; Hardware stack levels used:    1
  6226 ;; Hardware stack levels required when called:    2
  6227 ;; This function calls:
  6228 ;;		Nothing
  6229 ;; This function is called by:
  6230 ;;		___flmul
  6231 ;; This function uses a non-reentrant model
  6232 ;;
  6233                           
  6234                           
  6235                           ;psect for function __Umul8_16
  6236  08A5                     __Umul8_16:	
  6237                           
  6238                           ;incstack = 0
  6239                           ; Regs used in __Umul8_16: [wreg+status,2+status,0]
  6240                           ;__Umul8_16@multiplier stored from wreg
  6241  08A5  1283               	bcf	3,5	;RP0=0, select bank0
  6242  08A6  1303               	bcf	3,6	;RP1=0, select bank0
  6243  08A7  00A6               	movwf	__Umul8_16@multiplier
  6244  08A8                     l2864:	
  6245  08A8  01A2               	clrf	__Umul8_16@product
  6246  08A9  01A3               	clrf	__Umul8_16@product+1
  6247  08AA                     l2866:	
  6248  08AA  0875               	movf	__Umul8_16@multiplicand,w
  6249  08AB  00A0               	movwf	??__Umul8_16
  6250  08AC  01A1               	clrf	??__Umul8_16+1
  6251  08AD  0820               	movf	??__Umul8_16,w
  6252  08AE  00A4               	movwf	__Umul8_16@word_mpld
  6253  08AF  0821               	movf	??__Umul8_16+1,w
  6254  08B0  00A5               	movwf	__Umul8_16@word_mpld+1
  6255  08B1                     l2868:	
  6256  08B1  1C26               	btfss	__Umul8_16@multiplier,0
  6257  08B2  28B4               	goto	u4221
  6258  08B3  28B5               	goto	u4220
  6259  08B4                     u4221:	
  6260  08B4  28BB               	goto	l726
  6261  08B5                     u4220:	
  6262  08B5                     l2870:	
  6263  08B5  0824               	movf	__Umul8_16@word_mpld,w
  6264  08B6  07A2               	addwf	__Umul8_16@product,f
  6265  08B7  1803               	skipnc
  6266  08B8  0AA3               	incf	__Umul8_16@product+1,f
  6267  08B9  0825               	movf	__Umul8_16@word_mpld+1,w
  6268  08BA  07A3               	addwf	__Umul8_16@product+1,f
  6269  08BB                     l726:	
  6270  08BB  3001               	movlw	1
  6271  08BC                     u4235:	
  6272  08BC  1003               	clrc
  6273  08BD  0DA4               	rlf	__Umul8_16@word_mpld,f
  6274  08BE  0DA5               	rlf	__Umul8_16@word_mpld+1,f
  6275  08BF  3EFF               	addlw	-1
  6276  08C0  1D03               	skipz
  6277  08C1  28BC               	goto	u4235
  6278  08C2  1003               	clrc
  6279  08C3  0CA6               	rrf	__Umul8_16@multiplier,f
  6280  08C4                     l2872:	
  6281  08C4  0826               	movf	__Umul8_16@multiplier,w
  6282  08C5  1D03               	btfss	3,2
  6283  08C6  28C8               	goto	u4241
  6284  08C7  28C9               	goto	u4240
  6285  08C8                     u4241:	
  6286  08C8  28B1               	goto	l2868
  6287  08C9                     u4240:	
  6288  08C9                     l2874:	
  6289  08C9  0823               	movf	__Umul8_16@product+1,w
  6290  08CA  00F6               	movwf	?__Umul8_16+1
  6291  08CB  0822               	movf	__Umul8_16@product,w
  6292  08CC  00F5               	movwf	?__Umul8_16
  6293  08CD                     l728:	
  6294  08CD  0008               	return
  6295  08CE                     __end_of__Umul8_16:	
  6296                           
  6297                           	psect	text16
  6298  178C                     __ptext16:	
  6299 ;; *************** function _Envio *****************
  6300 ;; Defined at:
  6301 ;;		line 125 in file "Laboratorio_3.c"
  6302 ;; Parameters:    Size  Location     Type
  6303 ;;  Lol             1    wreg     unsigned char 
  6304 ;; Auto vars:     Size  Location     Type
  6305 ;;  Lol             1    5[COMMON] unsigned char 
  6306 ;; Return value:  Size  Location     Type
  6307 ;;                  1    wreg      void 
  6308 ;; Registers used:
  6309 ;;		wreg
  6310 ;; Tracked objects:
  6311 ;;		On entry : 0/0
  6312 ;;		On exit  : 0/0
  6313 ;;		Unchanged: 0/0
  6314 ;; Data sizes:     COMMON   BANK0   BANK1   BANK3   BANK2
  6315 ;;      Params:         0       0       0       0       0
  6316 ;;      Locals:         1       0       0       0       0
  6317 ;;      Temps:          0       0       0       0       0
  6318 ;;      Totals:         1       0       0       0       0
  6319 ;;Total ram usage:        1 bytes
  6320 ;; Hardware stack levels used:    1
  6321 ;; Hardware stack levels required when called:    2
  6322 ;; This function calls:
  6323 ;;		Nothing
  6324 ;; This function is called by:
  6325 ;;		_main
  6326 ;; This function uses a non-reentrant model
  6327 ;;
  6328                           
  6329                           
  6330                           ;psect for function _Envio
  6331  178C                     _Envio:	
  6332                           
  6333                           ;incstack = 0
  6334                           ; Regs used in _Envio: [wreg]
  6335                           ;Envio@Lol stored from wreg
  6336  178C  00F5               	movwf	Envio@Lol
  6337  178D                     l2374:	
  6338  178D                     l155:	
  6339                           ;Laboratorio_3.c: 128:     }
  6340                           
  6341                           
  6342                           ;Laboratorio_3.c: 126:     while(TXSTAbits.TRMT == 0){
  6343  178D  1683               	bsf	3,5	;RP0=1, select bank1
  6344  178E  1303               	bcf	3,6	;RP1=0, select bank1
  6345  178F  1C98               	btfss	24,1	;volatile
  6346  1790  2F92               	goto	u3181
  6347  1791  2F93               	goto	u3180
  6348  1792                     u3181:	
  6349  1792  2F8D               	goto	l155
  6350  1793                     u3180:	
  6351  1793                     l2376:	
  6352                           
  6353                           ;Laboratorio_3.c: 129:     TXREG = Lol;
  6354  1793  0875               	movf	Envio@Lol,w
  6355  1794  1283               	bcf	3,5	;RP0=0, select bank0
  6356  1795  1303               	bcf	3,6	;RP1=0, select bank0
  6357  1796  0099               	movwf	25	;volatile
  6358  1797                     l158:	
  6359  1797  0008               	return
  6360  1798                     __end_of_Envio:	
  6361                           
  6362                           	psect	text17
  6363  17C6                     __ptext17:	
  6364 ;; *************** function _Configuracion *****************
  6365 ;; Defined at:
  6366 ;;		line 133 in file "Laboratorio_3.c"
  6367 ;; Parameters:    Size  Location     Type
  6368 ;;		None
  6369 ;; Auto vars:     Size  Location     Type
  6370 ;;		None
  6371 ;; Return value:  Size  Location     Type
  6372 ;;                  1    wreg      void 
  6373 ;; Registers used:
  6374 ;;		wreg, status,2, status,0, pclath, cstack
  6375 ;; Tracked objects:
  6376 ;;		On entry : 0/0
  6377 ;;		On exit  : 0/0
  6378 ;;		Unchanged: 0/0
  6379 ;; Data sizes:     COMMON   BANK0   BANK1   BANK3   BANK2
  6380 ;;      Params:         0       0       0       0       0
  6381 ;;      Locals:         0       0       0       0       0
  6382 ;;      Temps:          0       0       0       0       0
  6383 ;;      Totals:         0       0       0       0       0
  6384 ;;Total ram usage:        0 bytes
  6385 ;; Hardware stack levels used:    1
  6386 ;; Hardware stack levels required when called:    4
  6387 ;; This function calls:
  6388 ;;		_Init_ADC
  6389 ;;		_Init_USART
  6390 ;;		_Interrupciones_ADC
  6391 ;;		_init_LCD
  6392 ;; This function is called by:
  6393 ;;		_main
  6394 ;; This function uses a non-reentrant model
  6395 ;;
  6396                           
  6397                           
  6398                           ;psect for function _Configuracion
  6399  17C6                     _Configuracion:	
  6400  17C6                     l2344:	
  6401                           ;incstack = 0
  6402                           ; Regs used in _Configuracion: [wreg+status,2+status,0+pclath+cstack]
  6403                           
  6404                           
  6405                           ;Laboratorio_3.c: 134:     TRISA = 0;
  6406  17C6  1683               	bsf	3,5	;RP0=1, select bank1
  6407  17C7  1303               	bcf	3,6	;RP1=0, select bank1
  6408  17C8  0185               	clrf	5	;volatile
  6409  17C9                     l2346:	
  6410                           
  6411                           ;Laboratorio_3.c: 135:     TRISC = 0b10000000;
  6412  17C9  3080               	movlw	128
  6413  17CA  0087               	movwf	7	;volatile
  6414  17CB                     l2348:	
  6415                           
  6416                           ;Laboratorio_3.c: 136:     Init_ADC();
  6417  17CB  160A  118A  2780  160A  118A  	fcall	_Init_ADC
  6418  17D0                     l2350:	
  6419                           
  6420                           ;Laboratorio_3.c: 137:     INTCONbits.GIE = 1;
  6421  17D0  178B               	bsf	11,7	;volatile
  6422  17D1                     l2352:	
  6423                           
  6424                           ;Laboratorio_3.c: 140:     Interrupciones_ADC();
  6425  17D1  160A  118A  277B  160A  118A  	fcall	_Interrupciones_ADC
  6426  17D6                     l2354:	
  6427                           
  6428                           ;Laboratorio_3.c: 141:     init_LCD();
  6429  17D6  160A  118A  27E1  160A  118A  	fcall	_init_LCD
  6430  17DB                     l2356:	
  6431                           
  6432                           ;Laboratorio_3.c: 142:     Init_USART();
  6433  17DB  160A  118A  2798  160A  118A  	fcall	_Init_USART
  6434  17E0                     l161:	
  6435  17E0  0008               	return
  6436  17E1                     __end_of_Configuracion:	
  6437                           
  6438                           	psect	text18
  6439  17E1                     __ptext18:	
  6440 ;; *************** function _init_LCD *****************
  6441 ;; Defined at:
  6442 ;;		line 95 in file "LCD.c"
  6443 ;; Parameters:    Size  Location     Type
  6444 ;;		None
  6445 ;; Auto vars:     Size  Location     Type
  6446 ;;		None
  6447 ;; Return value:  Size  Location     Type
  6448 ;;                  1    wreg      void 
  6449 ;; Registers used:
  6450 ;;		wreg, status,2, status,0, pclath, cstack
  6451 ;; Tracked objects:
  6452 ;;		On entry : 0/0
  6453 ;;		On exit  : 0/0
  6454 ;;		Unchanged: 0/0
  6455 ;; Data sizes:     COMMON   BANK0   BANK1   BANK3   BANK2
  6456 ;;      Params:         0       0       0       0       0
  6457 ;;      Locals:         0       0       0       0       0
  6458 ;;      Temps:          0       0       0       0       0
  6459 ;;      Totals:         0       0       0       0       0
  6460 ;;Total ram usage:        0 bytes
  6461 ;; Hardware stack levels used:    1
  6462 ;; Hardware stack levels required when called:    3
  6463 ;; This function calls:
  6464 ;;		_LCD_CmdWrite
  6465 ;; This function is called by:
  6466 ;;		_Configuracion
  6467 ;; This function uses a non-reentrant model
  6468 ;;
  6469                           
  6470                           
  6471                           ;psect for function _init_LCD
  6472  17E1                     _init_LCD:	
  6473  17E1                     l2092:	
  6474                           ;incstack = 0
  6475                           ; Regs used in _init_LCD: [wreg+status,2+status,0+pclath+cstack]
  6476                           
  6477                           
  6478                           ;LCD.c: 97:     LCD_CmdWrite(0x38);
  6479  17E1  3038               	movlw	56
  6480  17E2  120A  158A  20CE  160A  118A  	fcall	_LCD_CmdWrite
  6481                           
  6482                           ;LCD.c: 98:     LCD_CmdWrite(0x0E);
  6483  17E7  300E               	movlw	14
  6484  17E8  120A  158A  20CE  160A  118A  	fcall	_LCD_CmdWrite
  6485                           
  6486                           ;LCD.c: 99:     LCD_CmdWrite(0x01);
  6487  17ED  3001               	movlw	1
  6488  17EE  120A  158A  20CE  160A  118A  	fcall	_LCD_CmdWrite
  6489                           
  6490                           ;LCD.c: 100:     LCD_CmdWrite(0x06);
  6491  17F3  3006               	movlw	6
  6492  17F4  120A  158A  20CE  160A  118A  	fcall	_LCD_CmdWrite
  6493                           
  6494                           ;LCD.c: 101:     LCD_CmdWrite(0x80);
  6495  17F9  3080               	movlw	128
  6496  17FA  120A  158A  20CE  160A  118A  	fcall	_LCD_CmdWrite
  6497  17FF                     l28:	
  6498  17FF  0008               	return
  6499  1800                     __end_of_init_LCD:	
  6500                           
  6501                           	psect	text19
  6502  08CE                     __ptext19:	
  6503 ;; *************** function _LCD_CmdWrite *****************
  6504 ;; Defined at:
  6505 ;;		line 36 in file "LCD.c"
  6506 ;; Parameters:    Size  Location     Type
  6507 ;;  cmd             1    wreg     unsigned char 
  6508 ;; Auto vars:     Size  Location     Type
  6509 ;;  cmd             1    6[COMMON] unsigned char 
  6510 ;; Return value:  Size  Location     Type
  6511 ;;                  1    wreg      void 
  6512 ;; Registers used:
  6513 ;;		wreg, status,2, status,0
  6514 ;; Tracked objects:
  6515 ;;		On entry : 0/0
  6516 ;;		On exit  : 0/0
  6517 ;;		Unchanged: 0/0
  6518 ;; Data sizes:     COMMON   BANK0   BANK1   BANK3   BANK2
  6519 ;;      Params:         0       0       0       0       0
  6520 ;;      Locals:         1       0       0       0       0
  6521 ;;      Temps:          1       0       0       0       0
  6522 ;;      Totals:         2       0       0       0       0
  6523 ;;Total ram usage:        2 bytes
  6524 ;; Hardware stack levels used:    1
  6525 ;; Hardware stack levels required when called:    2
  6526 ;; This function calls:
  6527 ;;		Nothing
  6528 ;; This function is called by:
  6529 ;;		_init_LCD
  6530 ;;		_main
  6531 ;; This function uses a non-reentrant model
  6532 ;;
  6533                           
  6534                           
  6535                           ;psect for function _LCD_CmdWrite
  6536  08CE                     _LCD_CmdWrite:	
  6537                           
  6538                           ;incstack = 0
  6539                           ; Regs used in _LCD_CmdWrite: [wreg+status,2+status,0]
  6540                           ;LCD_CmdWrite@cmd stored from wreg
  6541  08CE  00F6               	movwf	LCD_CmdWrite@cmd
  6542  08CF                     l1710:	
  6543                           
  6544                           ;LCD.c: 36: void LCD_CmdWrite(unsigned char cmd);LCD.c: 37: {;LCD.c: 38:     PORTA = 0xF
      +                          F;
  6545  08CF  30FF               	movlw	255
  6546  08D0  1283               	bcf	3,5	;RP0=0, select bank0
  6547  08D1  1303               	bcf	3,6	;RP1=0, select bank0
  6548  08D2  0085               	movwf	5	;volatile
  6549  08D3                     l1712:	
  6550                           
  6551                           ;LCD.c: 39:     PORTA &= 0x80;
  6552  08D3  3080               	movlw	128
  6553  08D4  00F5               	movwf	??_LCD_CmdWrite
  6554  08D5  0875               	movf	??_LCD_CmdWrite,w
  6555  08D6  0585               	andwf	5,f	;volatile
  6556  08D7                     l1714:	
  6557                           
  6558                           ;LCD.c: 40:     PORTCbits.RC2 = 0;
  6559  08D7  1107               	bcf	7,2	;volatile
  6560  08D8                     l1716:	
  6561                           
  6562                           ;LCD.c: 41:     PORTCbits.RC1 = 1;
  6563  08D8  1487               	bsf	7,1	;volatile
  6564  08D9                     l1718:	
  6565                           
  6566                           ;LCD.c: 42:     PORTCbits.RC0 = 0;
  6567  08D9  1007               	bcf	7,0	;volatile
  6568  08DA                     l1720:	
  6569                           
  6570                           ;LCD.c: 43:     _delay((unsigned long)((1)*(4000000/4000.0)));
  6571  08DA  30C7               	movlw	199
  6572  08DB  00F5               	movwf	??_LCD_CmdWrite
  6573  08DC                     u5077:	
  6574  08DC  28DD               	nop2
  6575  08DD  0BF5               	decfsz	??_LCD_CmdWrite,f
  6576  08DE  28DC               	goto	u5077
  6577  08DF  28E0               	nop2
  6578  08E0  28E1               	nop2
  6579  08E1                     l1722:	
  6580                           
  6581                           ;LCD.c: 44:     PORTCbits.RC0 = 1;
  6582  08E1  1283               	bcf	3,5	;RP0=0, select bank0
  6583  08E2  1303               	bcf	3,6	;RP1=0, select bank0
  6584  08E3  1407               	bsf	7,0	;volatile
  6585                           
  6586                           ;LCD.c: 45:     if(PORTA == 0x80)
  6587  08E4  3080               	movlw	128
  6588  08E5  0605               	xorwf	5,w	;volatile
  6589  08E6  1D03               	btfss	3,2
  6590  08E7  28E9               	goto	u1821
  6591  08E8  28EA               	goto	u1820
  6592  08E9                     u1821:	
  6593  08E9  28F5               	goto	l11
  6594  08EA                     u1820:	
  6595  08EA                     l1724:	
  6596                           
  6597                           ;LCD.c: 46:     {;LCD.c: 47:         PORTCbits.RC0 = 0; _delay((unsigned long)((1)*(4000
      +                          000/4000.0))); PORTCbits.RC0 = 1;
  6598  08EA  1007               	bcf	7,0	;volatile
  6599  08EB                     l1726:	
  6600  08EB  30C7               	movlw	199
  6601  08EC  00F5               	movwf	??_LCD_CmdWrite
  6602  08ED                     u5087:	
  6603  08ED  28EE               	nop2
  6604  08EE  0BF5               	decfsz	??_LCD_CmdWrite,f
  6605  08EF  28ED               	goto	u5087
  6606  08F0  28F1               	nop2
  6607  08F1  28F2               	nop2
  6608  08F2                     l1728:	
  6609  08F2  1283               	bcf	3,5	;RP0=0, select bank0
  6610  08F3  1303               	bcf	3,6	;RP1=0, select bank0
  6611  08F4  1407               	bsf	7,0	;volatile
  6612  08F5                     l11:	
  6613                           ;LCD.c: 48:     }
  6614                           
  6615                           
  6616                           ;LCD.c: 50:     PORTA = cmd;
  6617  08F5  0876               	movf	LCD_CmdWrite@cmd,w
  6618  08F6  0085               	movwf	5	;volatile
  6619  08F7                     l1730:	
  6620                           
  6621                           ;LCD.c: 51:     PORTCbits.RC2 = 0;
  6622  08F7  1107               	bcf	7,2	;volatile
  6623  08F8                     l1732:	
  6624                           
  6625                           ;LCD.c: 52:     PORTCbits.RC1 = 0;
  6626  08F8  1087               	bcf	7,1	;volatile
  6627  08F9                     l1734:	
  6628                           
  6629                           ;LCD.c: 54:     PORTCbits.RC0 = 1;
  6630  08F9  1407               	bsf	7,0	;volatile
  6631                           
  6632                           ;LCD.c: 55:     _delay((unsigned long)((1)*(4000000/4000.0)));
  6633  08FA  30C7               	movlw	199
  6634  08FB  00F5               	movwf	??_LCD_CmdWrite
  6635  08FC                     u5097:	
  6636  08FC  28FD               	nop2
  6637  08FD  0BF5               	decfsz	??_LCD_CmdWrite,f
  6638  08FE  28FC               	goto	u5097
  6639  08FF  2900               	nop2
  6640  0900  2901               	nop2
  6641  0901                     l1736:	
  6642                           
  6643                           ;LCD.c: 56:     PORTCbits.RC0 = 0;
  6644  0901  1283               	bcf	3,5	;RP0=0, select bank0
  6645  0902  1303               	bcf	3,6	;RP1=0, select bank0
  6646  0903  1007               	bcf	7,0	;volatile
  6647  0904                     l12:	
  6648  0904  0008               	return
  6649  0905                     __end_of_LCD_CmdWrite:	
  6650                           
  6651                           	psect	text20
  6652  177B                     __ptext20:	
  6653 ;; *************** function _Interrupciones_ADC *****************
  6654 ;; Defined at:
  6655 ;;		line 23 in file "ADC.c"
  6656 ;; Parameters:    Size  Location     Type
  6657 ;;		None
  6658 ;; Auto vars:     Size  Location     Type
  6659 ;;		None
  6660 ;; Return value:  Size  Location     Type
  6661 ;;                  1    wreg      void 
  6662 ;; Registers used:
  6663 ;;		None
  6664 ;; Tracked objects:
  6665 ;;		On entry : 0/0
  6666 ;;		On exit  : 0/0
  6667 ;;		Unchanged: 0/0
  6668 ;; Data sizes:     COMMON   BANK0   BANK1   BANK3   BANK2
  6669 ;;      Params:         0       0       0       0       0
  6670 ;;      Locals:         0       0       0       0       0
  6671 ;;      Temps:          0       0       0       0       0
  6672 ;;      Totals:         0       0       0       0       0
  6673 ;;Total ram usage:        0 bytes
  6674 ;; Hardware stack levels used:    1
  6675 ;; Hardware stack levels required when called:    2
  6676 ;; This function calls:
  6677 ;;		Nothing
  6678 ;; This function is called by:
  6679 ;;		_Configuracion
  6680 ;; This function uses a non-reentrant model
  6681 ;;
  6682                           
  6683                           
  6684                           ;psect for function _Interrupciones_ADC
  6685  177B                     _Interrupciones_ADC:	
  6686  177B                     l2106:	
  6687                           ;incstack = 0
  6688                           ; Regs used in _Interrupciones_ADC: []
  6689                           
  6690                           
  6691                           ;ADC.c: 24:     INTCONbits.PEIE = 1;
  6692  177B  170B               	bsf	11,6	;volatile
  6693                           
  6694                           ;ADC.c: 25:     PIE1bits.ADIE = 1;
  6695  177C  1683               	bsf	3,5	;RP0=1, select bank1
  6696  177D  1303               	bcf	3,6	;RP1=0, select bank1
  6697  177E  170C               	bsf	12,6	;volatile
  6698  177F                     l55:	
  6699  177F  0008               	return
  6700  1780                     __end_of_Interrupciones_ADC:	
  6701                           
  6702                           	psect	text21
  6703  1798                     __ptext21:	
  6704 ;; *************** function _Init_USART *****************
  6705 ;; Defined at:
  6706 ;;		line 13 in file "USART.c"
  6707 ;; Parameters:    Size  Location     Type
  6708 ;;		None
  6709 ;; Auto vars:     Size  Location     Type
  6710 ;;		None
  6711 ;; Return value:  Size  Location     Type
  6712 ;;                  1    wreg      void 
  6713 ;; Registers used:
  6714 ;;		wreg
  6715 ;; Tracked objects:
  6716 ;;		On entry : 0/0
  6717 ;;		On exit  : 0/0
  6718 ;;		Unchanged: 0/0
  6719 ;; Data sizes:     COMMON   BANK0   BANK1   BANK3   BANK2
  6720 ;;      Params:         0       0       0       0       0
  6721 ;;      Locals:         0       0       0       0       0
  6722 ;;      Temps:          0       0       0       0       0
  6723 ;;      Totals:         0       0       0       0       0
  6724 ;;Total ram usage:        0 bytes
  6725 ;; Hardware stack levels used:    1
  6726 ;; Hardware stack levels required when called:    2
  6727 ;; This function calls:
  6728 ;;		Nothing
  6729 ;; This function is called by:
  6730 ;;		_Configuracion
  6731 ;; This function uses a non-reentrant model
  6732 ;;
  6733                           
  6734                           
  6735                           ;psect for function _Init_USART
  6736  1798                     _Init_USART:	
  6737  1798                     l2094:	
  6738                           ;incstack = 0
  6739                           ; Regs used in _Init_USART: [wreg]
  6740                           
  6741                           
  6742                           ;USART.c: 16:     PIE1bits.RCIE = 1;
  6743  1798  1683               	bsf	3,5	;RP0=1, select bank1
  6744  1799  1303               	bcf	3,6	;RP1=0, select bank1
  6745  179A  168C               	bsf	12,5	;volatile
  6746                           
  6747                           ;USART.c: 18:     TXSTAbits.SYNC = 0;
  6748  179B  1218               	bcf	24,4	;volatile
  6749                           
  6750                           ;USART.c: 19:     TXSTAbits.BRGH = 0;
  6751  179C  1118               	bcf	24,2	;volatile
  6752                           
  6753                           ;USART.c: 20:     BAUDCTLbits.BRG16 = 1;
  6754  179D  1683               	bsf	3,5	;RP0=1, select bank3
  6755  179E  1703               	bsf	3,6	;RP1=1, select bank3
  6756  179F  1587               	bsf	7,3	;volatile
  6757  17A0                     l2096:	
  6758                           
  6759                           ;USART.c: 21:     SPBRG = 25;
  6760  17A0  3019               	movlw	25
  6761  17A1  1683               	bsf	3,5	;RP0=1, select bank1
  6762  17A2  1303               	bcf	3,6	;RP1=0, select bank1
  6763  17A3  0099               	movwf	25	;volatile
  6764  17A4                     l2098:	
  6765                           
  6766                           ;USART.c: 22:     RCSTAbits.SPEN = 1;
  6767  17A4  1283               	bcf	3,5	;RP0=0, select bank0
  6768  17A5  1303               	bcf	3,6	;RP1=0, select bank0
  6769  17A6  1798               	bsf	24,7	;volatile
  6770  17A7                     l2100:	
  6771                           
  6772                           ;USART.c: 23:     RCSTAbits.CREN = 1;
  6773  17A7  1618               	bsf	24,4	;volatile
  6774  17A8                     l2102:	
  6775                           
  6776                           ;USART.c: 24:     TXSTAbits.TXEN = 1;
  6777  17A8  1683               	bsf	3,5	;RP0=1, select bank1
  6778  17A9  1303               	bcf	3,6	;RP1=0, select bank1
  6779  17AA  1698               	bsf	24,5	;volatile
  6780  17AB                     l41:	
  6781  17AB  0008               	return
  6782  17AC                     __end_of_Init_USART:	
  6783                           
  6784                           	psect	text22
  6785  1780                     __ptext22:	
  6786 ;; *************** function _Init_ADC *****************
  6787 ;; Defined at:
  6788 ;;		line 13 in file "ADC.c"
  6789 ;; Parameters:    Size  Location     Type
  6790 ;;		None
  6791 ;; Auto vars:     Size  Location     Type
  6792 ;;		None
  6793 ;; Return value:  Size  Location     Type
  6794 ;;                  1    wreg      void 
  6795 ;; Registers used:
  6796 ;;		None
  6797 ;; Tracked objects:
  6798 ;;		On entry : 0/0
  6799 ;;		On exit  : 0/0
  6800 ;;		Unchanged: 0/0
  6801 ;; Data sizes:     COMMON   BANK0   BANK1   BANK3   BANK2
  6802 ;;      Params:         0       0       0       0       0
  6803 ;;      Locals:         0       0       0       0       0
  6804 ;;      Temps:          0       0       0       0       0
  6805 ;;      Totals:         0       0       0       0       0
  6806 ;;Total ram usage:        0 bytes
  6807 ;; Hardware stack levels used:    1
  6808 ;; Hardware stack levels required when called:    2
  6809 ;; This function calls:
  6810 ;;		Nothing
  6811 ;; This function is called by:
  6812 ;;		_Configuracion
  6813 ;; This function uses a non-reentrant model
  6814 ;;
  6815                           
  6816                           
  6817                           ;psect for function _Init_ADC
  6818  1780                     _Init_ADC:	
  6819  1780                     l2104:	
  6820                           ;incstack = 0
  6821                           ; Regs used in _Init_ADC: []
  6822                           
  6823                           
  6824                           ;ADC.c: 14:     ADCON0bits.ADCS0 = 1;
  6825  1780  1283               	bcf	3,5	;RP0=0, select bank0
  6826  1781  1303               	bcf	3,6	;RP1=0, select bank0
  6827  1782  171F               	bsf	31,6	;volatile
  6828                           
  6829                           ;ADC.c: 15:     ADCON0bits.ADCS1 = 0;
  6830  1783  139F               	bcf	31,7	;volatile
  6831                           
  6832                           ;ADC.c: 16:     ADCON0bits.ADON = 1;
  6833  1784  141F               	bsf	31,0	;volatile
  6834                           
  6835                           ;ADC.c: 17:     ADCON0bits.GO_DONE = 1;
  6836  1785  149F               	bsf	31,1	;volatile
  6837                           
  6838                           ;ADC.c: 18:     ADCON1bits.ADFM = 0;
  6839  1786  1683               	bsf	3,5	;RP0=1, select bank1
  6840  1787  1303               	bcf	3,6	;RP1=0, select bank1
  6841  1788  139F               	bcf	31,7	;volatile
  6842                           
  6843                           ;ADC.c: 19:     ADCON1bits.VCFG0 = 0;
  6844  1789  121F               	bcf	31,4	;volatile
  6845                           
  6846                           ;ADC.c: 20:     ADCON1bits.VCFG1 = 0;
  6847  178A  129F               	bcf	31,5	;volatile
  6848  178B                     l52:	
  6849  178B  0008               	return
  6850  178C                     __end_of_Init_ADC:	
  6851                           
  6852                           	psect	text23
  6853  09BE                     __ptext23:	
  6854 ;; *************** function _ISR *****************
  6855 ;; Defined at:
  6856 ;;		line 55 in file "Laboratorio_3.c"
  6857 ;; Parameters:    Size  Location     Type
  6858 ;;		None
  6859 ;; Auto vars:     Size  Location     Type
  6860 ;;		None
  6861 ;; Return value:  Size  Location     Type
  6862 ;;                  1    wreg      void 
  6863 ;; Registers used:
  6864 ;;		wreg, status,2, status,0, pclath, cstack
  6865 ;; Tracked objects:
  6866 ;;		On entry : 0/0
  6867 ;;		On exit  : 0/0
  6868 ;;		Unchanged: 0/0
  6869 ;; Data sizes:     COMMON   BANK0   BANK1   BANK3   BANK2
  6870 ;;      Params:         0       0       0       0       0
  6871 ;;      Locals:         0       0       0       0       0
  6872 ;;      Temps:          4       0       0       0       0
  6873 ;;      Totals:         4       0       0       0       0
  6874 ;;Total ram usage:        4 bytes
  6875 ;; Hardware stack levels used:    1
  6876 ;; Hardware stack levels required when called:    1
  6877 ;; This function calls:
  6878 ;;		_Canales_ADC
  6879 ;; This function is called by:
  6880 ;;		Interrupt level 1
  6881 ;; This function uses a non-reentrant model
  6882 ;;
  6883                           
  6884                           
  6885                           ;psect for function _ISR
  6886  09BE                     _ISR:	
  6887  09BE                     i1l2540:	
  6888                           
  6889                           ;Laboratorio_3.c: 56:     if (PIR1bits.ADIF == 1)
  6890  09BE  1283               	bcf	3,5	;RP0=0, select bank0
  6891  09BF  1303               	bcf	3,6	;RP1=0, select bank0
  6892  09C0  1F0C               	btfss	12,6	;volatile
  6893  09C1  29C3               	goto	u355_21
  6894  09C2  29C4               	goto	u355_20
  6895  09C3                     u355_21:	
  6896  09C3  29F4               	goto	i1l2560
  6897  09C4                     u355_20:	
  6898  09C4                     i1l2542:	
  6899                           
  6900                           ;Laboratorio_3.c: 57:     {;Laboratorio_3.c: 58:         b++;
  6901  09C4  3001               	movlw	1
  6902  09C5  00F1               	movwf	??_ISR
  6903  09C6  0871               	movf	??_ISR,w
  6904  09C7  07F7               	addwf	_b,f
  6905  09C8                     i1l2544:	
  6906                           
  6907                           ;Laboratorio_3.c: 59:         if(b%2 == 1){
  6908  09C8  0877               	movf	_b,w
  6909  09C9  00F1               	movwf	??_ISR
  6910  09CA  01F2               	clrf	??_ISR+1
  6911  09CB  1BF1               	btfsc	??_ISR,7
  6912  09CC  03F2               	decf	??_ISR+1,f
  6913  09CD  1C71               	btfss	??_ISR,0
  6914  09CE  29D0               	goto	u356_21
  6915  09CF  29D1               	goto	u356_20
  6916  09D0                     u356_21:	
  6917  09D0  29DD               	goto	i1l2550
  6918  09D1                     u356_20:	
  6919  09D1                     i1l2546:	
  6920                           
  6921                           ;Laboratorio_3.c: 60:             Canales_ADC(8);
  6922  09D1  3008               	movlw	8
  6923  09D2  160A  118A  27AC  120A  158A  	fcall	_Canales_ADC
  6924  09D7                     i1l2548:	
  6925                           
  6926                           ;Laboratorio_3.c: 61:             Pot_1 = ADRESH;
  6927  09D7  1283               	bcf	3,5	;RP0=0, select bank0
  6928  09D8  1303               	bcf	3,6	;RP1=0, select bank0
  6929  09D9  081E               	movf	30,w	;volatile
  6930  09DA  00F1               	movwf	??_ISR
  6931  09DB  0871               	movf	??_ISR,w
  6932  09DC  00EB               	movwf	_Pot_1
  6933  09DD                     i1l2550:	
  6934                           
  6935                           ;Laboratorio_3.c: 63:         if (b%2 == 0){
  6936  09DD  0877               	movf	_b,w
  6937  09DE  00F1               	movwf	??_ISR
  6938  09DF  01F2               	clrf	??_ISR+1
  6939  09E0  1BF1               	btfsc	??_ISR,7
  6940  09E1  03F2               	decf	??_ISR+1,f
  6941  09E2  1871               	btfsc	??_ISR,0
  6942  09E3  29E5               	goto	u357_21
  6943  09E4  29E6               	goto	u357_20
  6944  09E5                     u357_21:	
  6945  09E5  29F2               	goto	i1l2556
  6946  09E6                     u357_20:	
  6947  09E6                     i1l2552:	
  6948                           
  6949                           ;Laboratorio_3.c: 64:             Canales_ADC(9);
  6950  09E6  3009               	movlw	9
  6951  09E7  160A  118A  27AC  120A  158A  	fcall	_Canales_ADC
  6952  09EC                     i1l2554:	
  6953                           
  6954                           ;Laboratorio_3.c: 65:             Pot_2 = ADRESH;
  6955  09EC  1283               	bcf	3,5	;RP0=0, select bank0
  6956  09ED  1303               	bcf	3,6	;RP1=0, select bank0
  6957  09EE  081E               	movf	30,w	;volatile
  6958  09EF  00F1               	movwf	??_ISR
  6959  09F0  0871               	movf	??_ISR,w
  6960  09F1  00EA               	movwf	_Pot_2
  6961  09F2                     i1l2556:	
  6962                           
  6963                           ;Laboratorio_3.c: 67:       ADCON0bits.GO_DONE = 1;
  6964  09F2  149F               	bsf	31,1	;volatile
  6965  09F3                     i1l2558:	
  6966                           
  6967                           ;Laboratorio_3.c: 68:       PIR1bits.ADIF = 0;
  6968  09F3  130C               	bcf	12,6	;volatile
  6969  09F4                     i1l2560:	
  6970                           
  6971                           ;Laboratorio_3.c: 70:     if (PIR1bits.RCIF == 1){
  6972  09F4  1E8C               	btfss	12,5	;volatile
  6973  09F5  29F7               	goto	u358_21
  6974  09F6  29F8               	goto	u358_20
  6975  09F7                     u358_21:	
  6976  09F7  2A0F               	goto	i1l142
  6977  09F8                     u358_20:	
  6978  09F8                     i1l2562:	
  6979                           
  6980                           ;Laboratorio_3.c: 71:         Sel_ADC = RCREG;
  6981  09F8  081A               	movf	26,w	;volatile
  6982  09F9  00F1               	movwf	??_ISR
  6983  09FA  0871               	movf	??_ISR,w
  6984  09FB  00F8               	movwf	_Sel_ADC
  6985  09FC                     i1l2564:	
  6986                           
  6987                           ;Laboratorio_3.c: 72:         if(Sel_ADC == 43){
  6988  09FC  302B               	movlw	43
  6989  09FD  0678               	xorwf	_Sel_ADC,w
  6990  09FE  1D03               	btfss	3,2
  6991  09FF  2A01               	goto	u359_21
  6992  0A00  2A02               	goto	u359_20
  6993  0A01                     u359_21:	
  6994  0A01  2A07               	goto	i1l2568
  6995  0A02                     u359_20:	
  6996  0A02                     i1l2566:	
  6997                           
  6998                           ;Laboratorio_3.c: 73:             Counter++;
  6999  0A02  3001               	movlw	1
  7000  0A03  00F1               	movwf	??_ISR
  7001  0A04  0871               	movf	??_ISR,w
  7002  0A05  07EC               	addwf	_Counter,f
  7003                           
  7004                           ;Laboratorio_3.c: 74:         }else if(Sel_ADC == 45){
  7005  0A06  2A0F               	goto	i1l142
  7006  0A07                     i1l2568:	
  7007  0A07  302D               	movlw	45
  7008  0A08  0678               	xorwf	_Sel_ADC,w
  7009  0A09  1D03               	btfss	3,2
  7010  0A0A  2A0C               	goto	u360_21
  7011  0A0B  2A0D               	goto	u360_20
  7012  0A0C                     u360_21:	
  7013  0A0C  2A0F               	goto	i1l142
  7014  0A0D                     u360_20:	
  7015  0A0D                     i1l2570:	
  7016                           
  7017                           ;Laboratorio_3.c: 75:             Counter--;
  7018  0A0D  3001               	movlw	1
  7019  0A0E  02EC               	subwf	_Counter,f
  7020  0A0F                     i1l142:	
  7021  0A0F  0874               	movf	??_ISR+3,w
  7022  0A10  008A               	movwf	10
  7023  0A11  0E73               	swapf	(??_ISR+2)^(0+4294967168),w
  7024  0A12  0083               	movwf	3
  7025  0A13  0EFE               	swapf	btemp,f
  7026  0A14  0E7E               	swapf	btemp,w
  7027  0A15  0009               	retfie
  7028  0A16                     __end_of_ISR:	
  7029                           
  7030                           	psect	intentry
  7031  0004                     __pintentry:	
  7032                           ;incstack = 0
  7033                           ; Regs used in _ISR: [wreg+status,2+status,0+pclath+cstack]
  7034                           
  7035  0004                     interrupt_function:	
  7036  007E                     saved_w	set	btemp
  7037  0004  00FE               	movwf	btemp
  7038  0005  0E03               	swapf	3,w
  7039  0006  00F3               	movwf	??_ISR+2
  7040  0007  080A               	movf	10,w
  7041  0008  00F4               	movwf	??_ISR+3
  7042  0009  120A  158A  29BE   	ljmp	_ISR
  7043                           
  7044                           	psect	text24
  7045  17AC                     __ptext24:	
  7046 ;; *************** function _Canales_ADC *****************
  7047 ;; Defined at:
  7048 ;;		line 28 in file "ADC.c"
  7049 ;; Parameters:    Size  Location     Type
  7050 ;;  Canal           1    wreg     unsigned char 
  7051 ;; Auto vars:     Size  Location     Type
  7052 ;;  Canal           1    0[COMMON] unsigned char 
  7053 ;; Return value:  Size  Location     Type
  7054 ;;                  1    wreg      void 
  7055 ;; Registers used:
  7056 ;;		wreg, status,2, status,0
  7057 ;; Tracked objects:
  7058 ;;		On entry : 0/0
  7059 ;;		On exit  : 0/0
  7060 ;;		Unchanged: 0/0
  7061 ;; Data sizes:     COMMON   BANK0   BANK1   BANK3   BANK2
  7062 ;;      Params:         0       0       0       0       0
  7063 ;;      Locals:         1       0       0       0       0
  7064 ;;      Temps:          0       0       0       0       0
  7065 ;;      Totals:         1       0       0       0       0
  7066 ;;Total ram usage:        1 bytes
  7067 ;; Hardware stack levels used:    1
  7068 ;; This function calls:
  7069 ;;		Nothing
  7070 ;; This function is called by:
  7071 ;;		_ISR
  7072 ;; This function uses a non-reentrant model
  7073 ;;
  7074                           
  7075                           
  7076                           ;psect for function _Canales_ADC
  7077  17AC                     _Canales_ADC:	
  7078                           
  7079                           ;incstack = 0
  7080                           ; Regs used in _Canales_ADC: [wreg+status,2+status,0]
  7081                           ;Canales_ADC@Canal stored from wreg
  7082  17AC  00F0               	movwf	Canales_ADC@Canal
  7083  17AD                     i1l2336:	
  7084                           
  7085                           ;ADC.c: 29:     if (Canal == 8){
  7086  17AD  3008               	movlw	8
  7087  17AE  0670               	xorwf	Canales_ADC@Canal,w
  7088  17AF  1D03               	btfss	3,2
  7089  17B0  2FB2               	goto	u315_21
  7090  17B1  2FB3               	goto	u315_20
  7091  17B2                     u315_21:	
  7092  17B2  2FB9               	goto	i1l2340
  7093  17B3                     u315_20:	
  7094  17B3                     i1l2338:	
  7095                           
  7096                           ;ADC.c: 31:     ADCON0bits.CHS0 = 0;
  7097  17B3  1283               	bcf	3,5	;RP0=0, select bank0
  7098  17B4  1303               	bcf	3,6	;RP1=0, select bank0
  7099  17B5  111F               	bcf	31,2	;volatile
  7100                           
  7101                           ;ADC.c: 32:     ADCON0bits.CHS1 = 0;
  7102  17B6  119F               	bcf	31,3	;volatile
  7103                           
  7104                           ;ADC.c: 33:     ADCON0bits.CHS2 = 0;
  7105  17B7  121F               	bcf	31,4	;volatile
  7106                           
  7107                           ;ADC.c: 34:     ADCON0bits.CHS3 = 1;
  7108  17B8  169F               	bsf	31,5	;volatile
  7109  17B9                     i1l2340:	
  7110                           
  7111                           ;ADC.c: 36:     if (Canal == 9){
  7112  17B9  3009               	movlw	9
  7113  17BA  0670               	xorwf	Canales_ADC@Canal,w
  7114  17BB  1D03               	btfss	3,2
  7115  17BC  2FBE               	goto	u316_21
  7116  17BD  2FBF               	goto	u316_20
  7117  17BE                     u316_21:	
  7118  17BE  2FC5               	goto	i1l60
  7119  17BF                     u316_20:	
  7120  17BF                     i1l2342:	
  7121                           
  7122                           ;ADC.c: 38:     ADCON0bits.CHS0 = 1;
  7123  17BF  1283               	bcf	3,5	;RP0=0, select bank0
  7124  17C0  1303               	bcf	3,6	;RP1=0, select bank0
  7125  17C1  151F               	bsf	31,2	;volatile
  7126                           
  7127                           ;ADC.c: 39:     ADCON0bits.CHS1 = 0;
  7128  17C2  119F               	bcf	31,3	;volatile
  7129                           
  7130                           ;ADC.c: 40:     ADCON0bits.CHS2 = 0;
  7131  17C3  121F               	bcf	31,4	;volatile
  7132                           
  7133                           ;ADC.c: 41:     ADCON0bits.CHS3 = 1;
  7134  17C4  169F               	bsf	31,5	;volatile
  7135  17C5                     i1l60:	
  7136  17C5  0008               	return
  7137  17C6                     __end_of_Canales_ADC:	
  7138  007E                     btemp	set	126	;btemp
  7139  007E                     wtemp0	set	126


Data Sizes:
    Strings     28
    Constant    10
    Data        2
    BSS         35
    Persistent  0
    Stack       0

Auto Spaces:
    Space          Size  Autos    Used
    COMMON           14      7       9
    BANK0            80     66      77
    BANK1            80      4      28
    BANK3            96      0       0
    BANK2            96      0       0

Pointer List with Targets:

    sprintf@f	PTR const unsigned char  size(1) Largest target is 3
		 -> STR_1(CODE[3]), 

    sprintf@sp	PTR unsigned char  size(1) Largest target is 3
		 -> WriteInt_LCD@output1(BANK0[3]), 

    sprintf@ap	PTR void [1] size(1) Largest target is 2
		 -> ?_sprintf(BANK0[2]), 

    LCD_DataWrite@dato	PTR unsigned char  size(2) Largest target is 17
		 -> STR_7(CODE[3]), STR_6(CODE[3]), STR_5(CODE[2]), STR_4(CODE[3]), 
		 -> STR_3(CODE[2]), STR_2(CODE[17]), WriteInt_LCD@output1(BANK0[3]), 


Critical Paths under _main in COMMON

    _main->_LCD_CmdWrite
    _main->___fltol
    _sprintf->___lwmod
    ___lwmod->___lwdiv
    _LCD_DataWrite->_DWR_LCD
    _FloatDec->___fltol
    ___flmul->__Umul8_16
    _init_LCD->_LCD_CmdWrite

Critical Paths under _ISR in COMMON

    _ISR->_Canales_ADC

Critical Paths under _main in BANK0

    _main->___fldiv
    ___fldiv->___flmul
    _WriteInt_LCD->_sprintf
    _sprintf->___lwmod
    ___lwmod->___lwdiv
    _FloatDec->___flmul
    ___flsub->___fladd
    ___flmul->___xxtofl

Critical Paths under _ISR in BANK0

    None.

Critical Paths under _main in BANK1

    None.

Critical Paths under _ISR in BANK1

    None.

Critical Paths under _main in BANK3

    None.

Critical Paths under _ISR in BANK3

    None.

Critical Paths under _main in BANK2

    None.

Critical Paths under _ISR in BANK2

    None.

Call Graph Tables:

 ---------------------------------------------------------------------------------
 (Depth) Function   	        Calls       Base Space   Used Autos Params    Refs
 ---------------------------------------------------------------------------------
 (0) _main                                                 4     4      0   19821
                                              0 BANK1      4     4      0
                      _Configuracion
                              _Envio
                           _FloatDec
                       _LCD_CmdWrite
                      _LCD_DataWrite
                       _WriteInt_LCD
                            ___fldiv
                             ___flge
                            ___flmul
                            ___fltol
                           ___xxtofl
 ---------------------------------------------------------------------------------
 (1) ___flge                                              12     4      8     626
                                              0 BANK0     12     4      8
 ---------------------------------------------------------------------------------
 (1) ___fldiv                                             26    18      8    1425
                                             40 BANK0     26    18      8
                            ___flmul (ARG)
                           ___xxtofl (ARG)
 ---------------------------------------------------------------------------------
 (1) _WriteInt_LCD                                         7     7      0    2495
                                             25 BANK0      7     7      0
                      _LCD_DataWrite
                            _sprintf
 ---------------------------------------------------------------------------------
 (2) _sprintf                                             21    18      3    1655
                                             12 BANK0     13    10      3
                            ___lwdiv
                            ___lwmod
 ---------------------------------------------------------------------------------
 (3) ___lwmod                                              6     2      4     412
                                              6 COMMON     1     1      0
                                              7 BANK0      5     1      4
                            ___lwdiv (ARG)
 ---------------------------------------------------------------------------------
 (3) ___lwdiv                                              8     4      4     421
                                              5 COMMON     1     1      0
                                              0 BANK0      7     3      4
 ---------------------------------------------------------------------------------
 (2) _LCD_DataWrite                                        2     0      2     717
                                              0 BANK0      2     0      2
                            _DWR_LCD
 ---------------------------------------------------------------------------------
 (3) _DWR_LCD                                              2     2      0      22
                                              5 COMMON     2     2      0
 ---------------------------------------------------------------------------------
 (1) _FloatDec                                             9     4      5    9156
                                             40 BANK0      9     4      5
                            ___flmul
                            ___flsub
                            ___fltol
                           ___xxtofl
 ---------------------------------------------------------------------------------
 (1) ___xxtofl                                            14    10      4     926
                                              0 BANK0     14    10      4
 ---------------------------------------------------------------------------------
 (1) ___fltol                                             11     7      4     697
                                              5 COMMON     2     2      0
                                              0 BANK0      9     5      4
 ---------------------------------------------------------------------------------
 (2) ___flsub                                              8     0      8    3367
                                             20 BANK0      8     0      8
                            ___fladd
                           ___xxtofl (ARG)
 ---------------------------------------------------------------------------------
 (3) ___fladd                                             20    12      8    3122
                                              0 BANK0     20    12      8
 ---------------------------------------------------------------------------------
 (1) ___flmul                                             26    18      8    3713
                                             14 BANK0     26    18      8
                          __Umul8_16
                           ___xxtofl (ARG)
 ---------------------------------------------------------------------------------
 (2) __Umul8_16                                            9     7      2     980
                                              5 COMMON     2     0      2
                                              0 BANK0      7     7      0
 ---------------------------------------------------------------------------------
 (1) _Envio                                                1     1      0      22
                                              5 COMMON     1     1      0
 ---------------------------------------------------------------------------------
 (1) _Configuracion                                        0     0      0      22
                           _Init_ADC
                         _Init_USART
                 _Interrupciones_ADC
                           _init_LCD
 ---------------------------------------------------------------------------------
 (2) _init_LCD                                             0     0      0      22
                       _LCD_CmdWrite
 ---------------------------------------------------------------------------------
 (1) _LCD_CmdWrite                                         2     2      0      22
                                              5 COMMON     2     2      0
 ---------------------------------------------------------------------------------
 (2) _Interrupciones_ADC                                   0     0      0       0
 ---------------------------------------------------------------------------------
 (2) _Init_USART                                           0     0      0       0
 ---------------------------------------------------------------------------------
 (2) _Init_ADC                                             0     0      0       0
 ---------------------------------------------------------------------------------
 Estimated maximum stack depth 3
 ---------------------------------------------------------------------------------
 (Depth) Function   	        Calls       Base Space   Used Autos Params    Refs
 ---------------------------------------------------------------------------------
 (4) _ISR                                                  4     4      0      44
                                              1 COMMON     4     4      0
                        _Canales_ADC
 ---------------------------------------------------------------------------------
 (5) _Canales_ADC                                          1     1      0      44
                                              0 COMMON     1     1      0
 ---------------------------------------------------------------------------------
 Estimated maximum stack depth 5
 ---------------------------------------------------------------------------------

 Call Graph Graphs:

 _main (ROOT)
   _Configuracion
     _Init_ADC
     _Init_USART
     _Interrupciones_ADC
     _init_LCD
       _LCD_CmdWrite
   _Envio
   _FloatDec
     ___flmul
       __Umul8_16
       ___xxtofl (ARG)
     ___flsub
       ___fladd
       ___xxtofl (ARG)
     ___fltol
     ___xxtofl
   _LCD_CmdWrite
   _LCD_DataWrite
     _DWR_LCD
   _WriteInt_LCD
     _LCD_DataWrite
       _DWR_LCD
     _sprintf
       ___lwdiv
       ___lwmod
         ___lwdiv (ARG)
   ___fldiv
     ___flmul (ARG)
       __Umul8_16
       ___xxtofl (ARG)
     ___xxtofl (ARG)
   ___flge
   ___flmul
     __Umul8_16
     ___xxtofl (ARG)
   ___fltol
   ___xxtofl

 _ISR (ROOT)
   _Canales_ADC

 Address spaces:
Name               Size   Autos  Total    Cost      Usage
BANK3               60      0       0       9        0.0%
BITBANK3            60      0       0       8        0.0%
SFR3                 0      0       0       4        0.0%
BITSFR3              0      0       0       4        0.0%
BANK2               60      0       0      11        0.0%
BITBANK2            60      0       0      10        0.0%
SFR2                 0      0       0       5        0.0%
BITSFR2              0      0       0       5        0.0%
BANK1               50      4      1C       7       35.0%
BITBANK1            50      0       0       6        0.0%
SFR1                 0      0       0       2        0.0%
BITSFR1              0      0       0       2        0.0%
BANK0               50     42      4D       5       96.3%
BITBANK0            50      0       0       4        0.0%
SFR0                 0      0       0       1        0.0%
BITSFR0              0      0       0       1        0.0%
COMMON               E      7       9       1       64.3%
BITCOMMON            E      0       0       0        0.0%
CODE                 0      0       0       0        0.0%
DATA                 0      0      72      12        0.0%
ABS                  0      0      72       3        0.0%
NULL                 0      0       0       0        0.0%
STACK                0      0       0       2        0.0%
EEDATA             100      0       0       0        0.0%


Microchip Technology PIC Macro Assembler V2.10 build 88905656 
Symbol Table                                                                                   Wed Feb 12 18:09:24 2020

               ___fldiv@aexp 0061                 ___fldiv@bexp 0060                            _b 0077  
                          pc 0002                 ___fldiv@sign 0059                  __CFG_CP$OFF 0000  
              ?_LCD_CmdWrite 0070                           l11 08F5                           l12 0904  
                         l22 08A4                           l15 092C         ??_Interrupciones_ADC 0075  
                         l16 093B                           l41 17AB                           l25 0858  
                         l52 178B                           l28 17FF                           l55 177F  
                         _f1 00B4                           _f2 00A8                           fsr 0004  
             ?_LCD_DataWrite 0020          __Umul8_16@word_mpld 0024             WriteInt_LCD@dato 003C  
                        l161 17E0                          l155 178D                          l148 0F45  
                        l149 0FA9                          l158 1797                          l166 0DE9  
                        l604 05AD                          l276 0CDB                          l454 0AB0  
                        l615 060D                          l607 05EB                          l631 07F6  
                        l616 0619                          l720 0BBB                          l552 09BD  
                        l473 0A7C                          l721 0BC7                          l713 0B9F  
                        l457 0B1C                          l466 0A91                          l562 0977  
                        l458 0B35                          l619 087C                          l707 0B5A  
                        l651 07DA                          l476 0A91                          l573 03F5  
                        l709 0BF1                          l653 07EA                          l645 0768  
                        l629 0676                          l726 08BB                          l728 08CD  
                        l681 0385                          l577 049C                          l594 0567  
                        l586 0619                          l675 02FD                          l579 0473  
                        l669 0391                          l598 058B                 __CFG_CPD$OFF 0000  
                        _ISR 09BE                          fsr0 0004                          indf 0000  
               ___flmul@aexp 003C                 ___flmul@bexp 0041                 ___flmul@sign 003B  
               ___flmul@temp 0046                 ___flmul@prod 0042                 __CFG_LVP$OFF 0000  
                       ?_ISR 0070        __size_of_WriteInt_LCD 0020                 ___fltol@exp1 0076  
                       l2100 17A7                         l2102 17A8                         l2104 1780  
                       l3000 0048                         l2106 177B                         l3010 0064  
                       l3002 004D                         l3100 0307                         l3020 0079  
                       l3012 006A                         l3004 0055                         l3110 0345  
                       l3102 0315                         l3030 0095                         l3022 0081  
                       l3014 006E                         l3006 0057                         l3120 0379  
                       l3112 0350                         l3104 0319                         l3040 00D8  
                       l3024 0083                         l3016 006F                         l3008 005F  
                       l2400 0621                         l3200 0AD0                         l3122 037D  
                       l3114 035F                         l3106 0332                         l3050 0161  
                       l3042 00F4                         l3034 009E                         l3026 008B  
                       l3018 0074                         l3130 0B39                         l2410 0636  
                       l2402 0627                         l3202 0AF4                         l2092 17E1  
                       l3124 037E                         l3116 0369                         l3108 0338  
                       l3060 01D4                         l3052 0171                         l3044 0120  
                       l3036 00AE                         l3028 0090                         l3132 0B3E  
                       l2500 074D                         l2420 064E                         l2412 063E  
                       l2404 062B                         l3204 0AF8                         l3220 0ED0  
                       l3212 0DEA                         l2094 1798                         l1710 08CF  
                       l2350 17D0                         l3126 0389                         l3118 036B  
                       l3070 0281                         l3062 01F1                         l3054 018E  
                       l3046 013C                         l3038 00BB                         l3150 0B88  
                       l3142 0B6B                         l3134 0B42                         l2510 0772  
                       l2502 0751                         l2430 0663                         l2422 0654  
                       l2414 063F                         l2406 062C                         l3206 0B32  
                       l3230 0F7A                         l3222 0EEC                         l3214 0DEF  
                       l2096 17A0                         l1720 08DA                         l1712 08D3  
                       l2352 17D1                         l2344 17C6                         l3080 02CD  
                       l3072 02A9                         l3064 021E                         l3056 019E  
                       l3048 0158                         l3160 0BBF                         l3152 0B96  
                       l3144 0B70                         l3136 0B52                         l2520 07B0  
                       l2512 0780                         l2504 0765                         l2440 068A  
                       l2432 066B                         l2424 0658                         l2408 0631  
                       l2416 0641                         l3208 0B34                         l3232 0FA3  
                       l3224 0F0B                         l3216 0DFA                         l2098 17A4  
                       l1730 08F7                         l1722 08E1                         l1714 08D7  
                       l2354 17D6                         l2346 17C9                         l3090 02E2  
                       l3082 02CE                         l3074 02B2                         l3066 022E  
                       l3058 01BB                         l3170 0BE9                         l3162 0BC9  
                       l3154 0BA6                         l3146 0B7D                         l3138 0B62  
                       l2530 07E0                         l2522 07BE                         l2514 0784  
                       l2442 068E                         l2434 066C                         l2426 0659  
                       l2418 0649                         l3234 0FEC                         l3226 0F24  
                       l3218 0E65                         l1732 08F8                         l1724 08EA  
                       l1716 08D8                         l2356 17DB                         l2348 17CB  
                       l3092 02E6                         l3084 02D7                         l3076 02C0  
                       l3068 025B                         l2700 03D7                         l3164 0BDF  
                       l3156 0BB1                         l3148 0B84                         l3180 0D33  
                       l1740 090A                         l2532 07E4                         l2524 07CD  
                       l2516 079D                         l2508 076D                         l2460 06CF  
                       l2452 06A5                         l2428 065E                         l2436 066E  
                       l3236 0FF4                         l3228 0F3F                         l1734 08F9  
                       l1726 08EB                         l1718 08D9                         l2374 178D  
                       l3094 02FA                         l3078 02C9                         l3086 02DD  
                       l2710 03EB                         l2702 03D8                         l3166 0BE4  
                       l3158 0BB5                         l3190 0DBE                         l3182 0D93  
                       l1750 0918                         l1742 090E                         l2630 098C  
                       l2622 0978                         l3174 083C                         l2534 07E6  
                       l2526 07D1                         l2518 07A3                         l2470 06ED  
                       l2462 06D1                         l2454 06B7                         l2438 067E  
                       l2446 0697                         l1736 0901                         l1728 08F2  
                       l2376 1793                         l3088 02E1                         l2800 054A  
                       l2720 0407                         l2704 03DD                         l2712 03ED  
                       l3168 0BE8                         l3184 0D98                         l3176 0CDC  
                       l1760 092F                         l1752 0921                         l1744 090F  
                       l2640 09AC                         l2632 0990                         l2624 097C  
                       l2528 07D9                         l2464 06D6                         l2472 06F6  
                       l2480 071B                         l2456 06BF                         l2448 069C  
                       l3192 0A92                         l3098 0302                         l2810 057D  
                       l2802 0559                         l2730 041B                         l2722 040B  
                       l2714 03FB                         l2706 03E2                         l3186 0D9C  
                       l3178 0CF1                         l1762 0930                         l1754 0922  
                       l1746 0910                         l1738 0906                         l2642 09B3  
                       l2634 0994                         l2626 0982                         l2650 0944  
                       l3258 0C1F                         l2490 0738                         l2482 0721  
                       l2474 0708                         l2466 06E8                         l2458 06C7  
                       l3194 0AA8                         l2820 0594                         l2812 0586  
                       l2804 056F                         l2740 042F                         l2732 041F  
                       l2724 040F                         l2716 03FF                         l2708 03EA  
                       l3188 0DBA                         l1764 0938                         l1756 0929  
                       l1748 0911                         l2636 09A5                         l2628 0985  
                       l2644 09B9                         l2660 0960                         l2652 0947  
                       l2900 0C2A                         l2492 0739                         l2484 0729  
                       l2476 0709                         l2468 06EC                         l3196 0AC4  
                       l2830 05A4                         l2822 0599                         l2814 058A  
                       l2806 0574                         l2750 0440                         l2742 0433  
                       l2734 0423                         l2726 0413                         l2718 0403  
                       l2670 0392                         l1758 092E                         l2638 09AB  
                       l2662 0966                         l2654 094E                         l2910 0C43  
                       l2902 0C32                         l2494 0742                         l2486 072B  
                       l2478 0717                         l2398 061A                         l3198 0ACC  
                       l2840 05C5                         l2832 05AA                         l2816 058F  
                       l2824 059B                         l2760 0486                         l2752 0457  
                       l2744 0437                         l2736 0427                         l2728 0417  
                       l2680 03A9                         l2672 0399                         l2664 096D  
                       l2656 0952                         l2648 093C                         l2920 0C61  
                       l2904 0C36                         l2488 0734                         l2496 0748  
                       l2850 05FD                         l2842 05C9                         l2818 0592  
                       l2826 059F                         l2770 04A5                         l2762 0487  
                       l2754 0477                         l2746 043B                         l2738 042B  
                       l2690 03C1                         l2682 03AE                         l2674 039F  
                       l2658 0956                         l2666 0973                         l2930 0C81  
                       l2922 0C6B                         l2906 0C3A                         l2498 074C  
                       l2860 0614                         l2852 0602                         l2844 05E7  
                       l2836 05B2                         l2828 05A0                         l2780 04CD  
                       l2764 0490                         l2756 0480                         l2748 043F  
                       l2692 03C6                         l2684 03B6                         l2676 03A3  
                       l2932 0CB1                         l2924 0C71                         l2916 0C45  
                       l2908 0C3E                         l2940 0CD7                         l2870 08B5  
                       l2862 0618                         l2854 0603                         l2846 05F0  
                       l2838 05B7                         l2790 04E6                         l2782 04D6  
                       l2774 04AE                         l2758 0482                         l2766 0494  
                       l2694 03CC                         l2686 03B7                         l2678 03A4  
                       l2950 0A23                         l2934 0CB8                         l2926 0C78  
                       l2872 08C4                         l2864 08A8                         l2856 0607  
                       l2848 05F5                         l2784 04D8                         l2776 04C5  
                       l2768 04A0                         l2792 04EB                         l2696 03CD  
                       l2688 03B9                         l2960 0A4A                         l2880 087E  
                       l2936 0CBC                         l2928 0C7C                         l2874 08C9  
                       l2866 08AA                         l2858 0609                         l2794 0501  
                       l2786 04DC                         l2778 04C9                         l2698 03D3  
                       l2970 0A58                         l2962 0A4C                         l2954 0A2C  
                       l2882 088C                         l2890 0C00                         l2938 0CC5  
                       l2868 08B1                         l2796 053F                         l2788 04DD  
                       l2980 0A81                         l2964 0A50                         l2972 0A6A  
                       l2956 0A41                         l2948 0A16                         l2884 0894  
                       l2892 0C07                         l2990 0031                         l2798 0545  
                       l2982 0A86                         l2958 0A42                         l2878 087D  
                       l2894 0C0C                         l2886 0BF5                         l2992 0038  
                       l2984 0859                         l2888 0BFA                         l2994 003E  
                       l2986 085D                         l2978 0A71                         l2898 0C0D  
                       l2996 0042              __end_of_DWR_LCD 093C                         l2998 0043  
                       STR_1 0831                         STR_2 081A                         STR_3 0834  
                       STR_4 082E                         STR_5 0834                         STR_6 082E  
                       STR_7 082B                         u4001 0518                         u4010 052C  
                       u4002 0519                         u4011 052D                         u4003 051E  
                       u4100 05A4                         u4020 054A                         u4012 0532  
                       u4004 051F                         u3300 065E                         u4101 05A3  
                       u4021 0549                         u4013 0533                         u4005 0524  
                       u3301 065D                         u4110 05AA                         u4030 056F  
                       u4006 0525                         u3310 0663                         u4111 05A9  
                       u4031 056E                         u3311 0662                         u4200 0607  
                       u4120 05B1                         u4040 0574                         u3400 0721  
                       u3320 067E                         u4201 0606                         u4121 05B0  
                       u4041 0573                         u3401 0720                         u3321 067D  
                       u5001 0B07                         u4210 0618                         u4130 05B7  
                       u3410 0729                         u3330 069C                         u5010 0B32  
                       u5002 0B08                         u4211 0617                         u4131 05B6  
                       u3411 0728                         u3331 069B                         u5011 0B31  
                       u5003 0B0D                         u1820 08EA                         u3180 1793  
                       u4220 08B5                         u4140 05C9                         u4060 058A  
                       u4300 0C71                         u3500 0784                         u3340 06D6  
                       u3260 062B                         u5004 0B0E                         u5020 0F3F  
                       u1821 08E9                         u3181 1792                         u4221 08B4  
                       u4141 05C8                         u4061 0589                         u4301 0C70  
                       u3501 0783                         u3341 06D5                         u3261 062A  
                       u5005 0B13                         u5021 0F3E                         u4150 05D8  
                       u4070 058F                         u1830 0921                         u4310 0CC5  
                       u3510 0793                         u3430 0738                         u3270 0631  
                       u5006 0B14                         u5030 0FA3                         u4071 058E  
                       u4055 057F                         u1831 0920                         u4311 0CC4  
                       u3431 0737                         u3271 0630                         u5015 0B2E  
                       u5031 0FA2                         u4240 08C9                         u4160 05E7  
                       u4080 0599                         u4320 0CD7                         u3520 07B0  
                       u3280 0636                         u4241 08C8                         u4161 05E6  
                       u4081 0598                         u4321 0CD6                         u3521 07AF  
                       u3425 072D                         u3281 0635                         u4170 05F0  
                       u4090 059F                         u4410 0A81                         u4330 0A23  
                       u4250 08A4                         u3530 07CD                         u3450 074C  
                       u3370 06EC                         u3290 0658                         u4235 08BC  
                       u4171 05EF                         u4155 05D3                         u4091 059E  
                       u4411 0A80                         u4331 0A22                         u4251 08A3  
                       u3531 07CC                         u3515 078E                         u3451 074B  
                       u3371 06EB                         u3355 06D8                         u3291 0657  
                       u4500 0095                         u4180 05F5                         u4420 0A86  
                       u4340 0A3A                         u3700 0944                         u4260 0C00  
                       u3540 07E4                         u3460 0751                         u4501 0094  
                       u4181 05F4                         u4421 0A85                         u4405 0A73  
                       u3701 0943                         u4261 0BFF                         u3541 07E3  
                       u3525 07AC                         u3461 0750                         u3445 073B  
                       u3365 06E1                         u4430 0042                         u4190 0602  
                       u4350 0A50                         u3630 0982                         u4270 0C3A  
                       u3470 0765                         u3390 0708                         u4511 00E6  
                       u4431 0041                         u4191 0601                         u4351 0A4F  
                       u5047 0913                         u3631 0981                         u4271 0C39  
                       u3535 07C9                         u3471 0764                         u3391 0707  
                       u4512 00ED                         u4440 0048                         u3800 03D7  
                       u4360 0A57                         u3720 0956                         u4280 0C60  
                       u3480 076C                         u4601 0210                         u4521 0102  
                       u4513 00F4                         u4441 0047                         u3801 03D6  
                       u4361 0A56                         u4345 0A35                         u5057 0924  
                       u3721 0955                         u4281 0C5F                         u3481 076B  
                       u3385 06EF                         u4602 0217                         u4522 0109  
                       u4450 004D                         u3810 03DD                         u3650 0994  
                       u3730 0960                         u4290 0C6B                         u3490 0772  
                       u4611 023D                         u4603 021E                         u4531 012E  
                       u4523 0110                         u4451 004C                         u3811 03DC  
                       u5067 0933                         u3651 0993                         u3731 095F  
                       u3715 0948                         u4291 0C6A                         u3491 0771  
                       u3395 0704                         u4700 02E1                         u4620 0267  
                       u4612 0244                         u4532 0135                         u4460 006E  
                       u3820 03E2                         u4380 0A69                         u5077 08DC  
                       u4701 02E0                         u4613 024B                         u4541 014A  
                       u4533 013C                         u4461 006D                         u3821 03E1  
                       u4381 0A68                         u3645 0986                         u4285 0C5C  
                       u4710 02E6                         u4542 0151                         u4470 0074  
                       u3910 049C                         u3830 03FB                         u4390 0A70  
                       u3670 09A5                         u3750 0973                         u5087 08ED  
                       u4711 02E5                         u4631 0273                         u4543 0158  
                       u4471 0073                         u3911 049B                         u3831 03FA  
                       u4391 0A6F                         u4375 0A59                         u3671 09A4  
                       u3751 0972                         u3735 095C                         u4720 02FA  
                       u4640 028F                         u4632 027A                         u4480 0079  
                       u3920 04A0                         u3840 03FF                         u3760 03A3  
                       u4800 0B3E                         u5097 08FC                         u4721 02F9  
                       u4633 0281                         u4625 0262                         u4561 0180  
                       u4481 0078                         u3921 049F                         u3905 0489  
                       u3841 03FE                         u3761 03A2                         u4801 0B3D  
                       u3665 0995                         u3745 0967                         u4730 0301  
                       u4562 0187                         u4490 0090                         u3930 04A5  
                       u3850 0457                         u3770 03A9                         u4810 0B42  
                       u3690 09B9                         u4731 0300                         u4651 029B  
                       u4571 01AD                         u4563 018E                         u4555 015A  
                       u4491 008F                         u3931 04A4                         u3851 0456  
                       u3771 03A8                         u4811 0B41                         u3691 09B8  
                       u3675 09A1                         i1l60 17C5                         u4740 0307  
                       u4652 02A2                         u4572 01B4                         u3860 0462  
                       u3780 03AE                         u4900 0BBF                         u4820 0B62  
                       u4741 0306                         u4653 02A9                         u4645 028A  
                       u4573 01BB                         u3941 04B7                         u3861 0460  
                       u3781 03AD                         u4901 0BBE                         u4821 0B61  
                       u3685 09AD                         u4750 0319                         u3950 04C9  
                       u3942 04BE                         u3870 0463                         u3790 03CC  
                       u4910 0BD4                         u4751 0318                         u4591 01E3  
                       u3951 04C8                         u3943 04C5                         u3855 0453  
                       u3791 03CB                         u4760 0328                         u4680 02CD  
                       u4592 01EA                         u3960 04CD                         u3880 0477  
                       u4920 0BE4                         u4840 0B83                         u4681 02CC  
                       u4665 02AB                         u4593 01F1                         u4585 01BD  
                       u3961 04CC                         u3881 0476                         u4921 0BE3  
                       u4841 0B82                         u4770 0345                         u3970 04DC  
                       u3890 0486                         u4930 0BE8                         u4771 0344  
                       u4675 02C2                         u3971 04DB                         u3891 0485  
                       u4931 0BE7                         u4915 0BCF                         u4835 0B75  
                       u4780 035F                         u4860 0BA5                         u4940 0D98  
                       u4781 035E                         u4765 0323                         u4861 0BA4  
                       u4941 0D97                         u4790 037D                         u3990 0501  
                       u4950 0AA8                         u4791 037C                         u4775 0341  
                       u4695 02D0                         u3991 0500                         u4855 0B97  
                       u4951 0AA7                         u4880 0BB5                         u4960 0AC4  
                       u4785 035B                         u3993 04FD                         u3985 04DF  
                       u4881 0BB4                         u4961 0AC3                         u4890 0BBB  
                       u4970 0AD0                         u4891 0BBA                         u4875 0BAA  
                       u4971 0ACF                         u4981 0ADF                         u4990 0AF8  
                       u4982 0AE0                         u4991 0AF7                         u4983 0AE5  
                       u4984 0AE6                         u4985 0AEB                         u4986 0AEC  
               __CFG_WRT$OFF 0000                         _main 0DEA                         btemp 007E  
                       start 000C                __CFG_IESO$OFF 0000              ___fldiv@new_exp 005A  
                _Canales_ADC 17AC                        ??_ISR 0071               ??_LCD_CmdWrite 0075  
              ___fltol@sign1 0075              __end_of___fladd 061A                        ?_main 0070  
            __end_of___fldiv 07F7                __CFG_WDTE$OFF 0000              __end_of___flmul 0392  
            __end_of___flsub 087D              __end_of___fltol 0A92                 _WriteInt_LCD 0839  
            __end_of___lwdiv 09BE                        i1l142 0A0F              __end_of___lwmod 0978  
                      _RCREG 001A                        _SPBRG 0099                        _PORTA 0005  
                      _TRISA 0085                        _TRISC 0087                        _Dec_1 0067  
                      _Dec_2 0066                        _TXREG 0019                        _Envio 178C  
             __CFG_FCMEN$OFF 0000                        _Pot_1 006B                        _Pot_2 006A  
                      _Uni_1 0062                        _Uni_2 00B0              __end_of_dpowers 081A  
           Canales_ADC@Canal 0070                        _tempU 00AC               __CFG_BOREN$OFF 0000  
                      pclath 000A                        status 0003                        wtemp0 007E  
            __end_of_sprintf 0CDC                   _Init_USART 1798               __CFG_MCLRE$OFF 0000  
            __initialization 000F             __end_of_FloatDec 0DEA                 __end_of_main 1000  
           __end_of_Init_ADC 178C              ??_LCD_DataWrite 0077                       ??_main 00B8  
                  ??_DWR_LCD 0075                       ?_Envio 0070                       _ADRESH 001E  
        WriteInt_LCD@output1 003D                       i1l2340 17B9                       i1l2342 17BF  
                     i1l2336 17AD                       i1l2338 17B3                       i1l2540 09BE  
                     i1l2550 09DD                       i1l2542 09C4                       i1l2552 09E6  
                     i1l2544 09C8                       i1l2560 09F4                       i1l2570 0A0D  
                     i1l2562 09F8                       i1l2554 09EC                       i1l2546 09D1  
                     i1l2564 09FC                       i1l2556 09F2                       i1l2548 09D7  
                     i1l2566 0A02                       i1l2558 09F3                       i1l2568 0A07  
                     u315_20 17B3                       u315_21 17B2                       u316_20 17BF  
                     u316_21 17BE                       u360_20 0A0D                       u360_21 0A0C  
                     u355_20 09C4                       u355_21 09C3                       u356_20 09D1  
                     u356_21 09D0                       u357_20 09E6                       u357_21 09E5  
                     u358_20 09F8                       u358_21 09F7                       u359_20 0A02  
                     u359_21 0A01             __end_of___xxtofl 0BF2               __CFG_PWRTE$OFF 0000  
                     ___flge 0A92                    ??___fladd 0028                    ??___fldiv 0050  
                  ??___flmul 0036                    ??___flsub 0075                    ??___fltol 0024  
                  ??___lwdiv 0075             __end_of_init_LCD 1800                    ??___lwmod 0076  
               __pdataCOMMON 0078           __size_of__Umul8_16 0029                       saved_w 007E  
                  ??_sprintf 002F         __end_of_LCD_CmdWrite 0905                   ___flge@ff1 0020  
                 ___flge@ff2 0024                 ___xxtofl@arg 002A                 ___xxtofl@exp 0029  
               ___xxtofl@val 0020      __end_of__initialization 002D                   ___fltol@f1 0020  
                ?_Init_USART 0070                __end_of_Envio 1798               __pcstackCOMMON 0070  
               __pidataBANK0 0003                      ??_Envio 0075                    ?_FloatDec 0048  
                 __pbssBANK0 0062                   __pbssBANK1 00A0        __end_of_Configuracion 17E1  
                  ?_Init_ADC 0070                 ?_Canales_ADC 0070            __end_of__Umul8_16 08CE  
                 __pmaintext 0DEA                      ?___flge 0020                   __pintentry 0004  
__size_of_Interrupciones_ADC 0005                    ?___xxtofl 0020                      _DWR_LCD 0905  
        __size_of_Init_USART 0014                   ??_FloatDec 004D                   __stringtab 0800  
                    _Decenas 0069                   ??_Init_ADC 0075                    ?_init_LCD 0070  
                    _Counter 006C                      _Sel_ADC 0078              __size_of___flge 00A4  
                    ___fladd 0392                      ___fldiv 061A                      ___flmul 0031  
                    ___flsub 0859                      ___fltol 0A16                      ___lwdiv 0978  
                    ___lwmod 093C                      __ptext1 0A92                      __ptext2 061A  
                    __ptext3 0839                      __ptext4 0BF2                      __ptext5 093C  
                    __ptext6 0978                      __ptext7 087D                      __ptext8 0905  
                    __ptext9 0CDC                 __size_of_ISR 0058                      _dpowers 0810  
                 ??___xxtofl 0024        __size_of_LCD_CmdWrite 0037                      _output1 00A0  
                    _sprintf 0BF2                      clrloop0 07F8         end_of_initialization 002D  
                 ??_init_LCD 0077                    _RCSTAbits 0018                 _LCD_CmdWrite 08CE  
      __end_of_LCD_DataWrite 08A5                    _PORTCbits 0007                  ___fladd@grs 0033  
              ___xxtofl@sign 0028                  ___fldiv@grs 005C                  ___fldiv@rem 0055  
                ___flmul@grs 003D                    _TXSTAbits 0098                 ??_Init_USART 0075  
       __size_of_Canales_ADC 001A               __end_of___flge 0B36                __pidataCOMMON 07FF  
                _BAUDCTLbits 0187          start_initialization 000F                  __end_of_ISR 0A16  
         __end_of_Init_USART 17AC            __size_of_FloatDec 010E            __size_of_Init_ADC 000C  
                 DWR_LCD@dat 0076     __CFG_FOSC$INTRC_NOCLKOUT 0000                     ??___flge 0028  
                  __Umul8_16 08A5                  __pdataBANK0 006C                ?_WriteInt_LCD 0070  
                  ___fladd@a 0024                    ___fladd@b 0020                    ___fldiv@a 0048  
                  ___fldiv@b 004C                    ___flmul@a 0032                    ___flmul@b 002E  
                __pbssCOMMON 0077                     ?_DWR_LCD 0070                    ___flsub@a 0034  
                  ___flsub@b 0038                    ___latbits 0002                __pcstackBANK0 0020  
              __pcstackBANK1 00B8            __size_of___xxtofl 00BC                  sprintf@flag 0033  
                sprintf@prec 0034            __size_of_init_LCD 001F             ___lwdiv@dividend 0022  
 __end_of_Interrupciones_ADC 1780                     ?___fladd 0020                     ?___fldiv 0048  
                   ?___flmul 002E                     ?___flsub 0034                     ?___fltol 0020  
                 ?__Umul8_16 0075                     ?___lwdiv 0020                     ?___lwmod 0027  
             ??_WriteInt_LCD 0039                    __pstrings 0800       __size_of_Configuracion 001B  
             __size_of_Envio 000C             ___lwdiv@quotient 0025                     ?_sprintf 002C  
          interrupt_function 0004                    clear_ram0 07F7                     _PIE1bits 008C  
                   _PIR1bits 000C              LCD_CmdWrite@cmd 0076                   _ADCON0bits 001F  
                __stringbase 080F                   _ADCON1bits 009F                     Envio@Lol 0075  
           __size_of_DWR_LCD 0037                     _FloatDec 0CDC                     _Init_ADC 1780  
              _Configuracion 17C6                     _Unidades 0068                  ??__Umul8_16 0020  
           __size_of___fladd 0288             __size_of___fldiv 01DD             __size_of___flmul 0361  
           __size_of___flsub 0024             __size_of___fltol 007C             __size_of___lwdiv 0046  
           __size_of___lwmod 003C           __end_of__stringtab 0810                   sprintf@val 0035  
          LCD_DataWrite@dato 0020                     ___xxtofl 0B36              ___lwdiv@divisor 0020  
            ___lwdiv@counter 0024                     __ptext10 0B36                     __ptext11 0A16  
                   __ptext20 177B                     __ptext12 0859                     __ptext21 1798  
                   __ptext13 0392                     __ptext22 1780                     __ptext14 0031  
                   __ptext23 09BE                     __ptext15 08A5                     __ptext24 17AC  
                   __ptext16 178C                     __ptext17 17C6                     __ptext18 17E1  
                   __ptext19 08CE            __CFG_BOR4V$BOR40V 0000             __size_of_sprintf 00EA  
             ?_Configuracion 0070                     _init_LCD 17E1                __size_of_main 0216  
       __end_of_WriteInt_LCD 0859       __size_of_LCD_DataWrite 0028                ??_Canales_ADC 0070  
                 _INTCONbits 000B             FloatDec@Selector 004C             FloatDec@Variable 0048  
                   intlevel1 0000                    sprintf@ap 0032                    sprintf@sp 0037  
           ___lwmod@dividend 0029                    stringcode 080A          __end_of_Canales_ADC 17C6  
              _LCD_DataWrite 087D       __Umul8_16@multiplicand 0075                     sprintf@c 0038  
                   sprintf@f 002C              ___lwmod@divisor 0027              ___lwmod@counter 002B  
         _Interrupciones_ADC 177B                     stringdir 080A                     stringtab 0800  
            ??_Configuracion 0077                ___fladd@signs 0030          ?_Interrupciones_ADC 0070  
               ___fladd@aexp 0031                 ___fladd@bexp 0032         __Umul8_16@multiplier 0026  
          __Umul8_16@product 0022  
